ARM GAS  C:\Users\alexi\AppData\Local\Temp\cclnBYDp.s 			page 1


   1              		.cpu cortex-m4
   2              		.eabi_attribute 27, 1
   3              		.eabi_attribute 28, 1
   4              		.eabi_attribute 20, 1
   5              		.eabi_attribute 21, 1
   6              		.eabi_attribute 23, 3
   7              		.eabi_attribute 24, 1
   8              		.eabi_attribute 25, 1
   9              		.eabi_attribute 26, 1
  10              		.eabi_attribute 30, 2
  11              		.eabi_attribute 34, 1
  12              		.eabi_attribute 18, 4
  13              		.file	"pi_regulator.c"
  14              		.text
  15              	.Ltext0:
  16              		.cfi_sections	.debug_frame
  17              		.section	.text.pi_regulator,"ax",%progbits
  18              		.align	1
  19              		.p2align 4,,15
  20              		.global	pi_regulator
  21              		.syntax unified
  22              		.thumb
  23              		.thumb_func
  24              		.fpu fpv4-sp-d16
  25              		.type	pi_regulator, %function
  26              	pi_regulator:
  27              	.LFB257:
  28              		.file 1 "pi_regulator.c"
  29              		.loc 1 14 0
  30              		.cfi_startproc
  31              		@ args = 0, pretend = 0, frame = 8
  32              		@ frame_needed = 0, uses_anonymous_args = 0
  33              	.LVL0:
  34 0000 00B5     		push	{lr}
  35              		.cfi_def_cfa_offset 4
  36              		.cfi_offset 14, -4
  37              		.loc 1 22 0
  38 0002 30EE600A 		vsub.f32	s0, s0, s1
  39              	.LVL1:
  40              		.loc 1 14 0
  41 0006 274B     		ldr	r3, .L15
  42              		.loc 1 27 0
  43 0008 B0EEC07A 		vabs.f32	s14, s0
  44 000c F6EE007A 		vmov.f32	s15, #5.0e-1
  45              		.loc 1 14 0
  46 0010 83B0     		sub	sp, sp, #12
  47              		.cfi_def_cfa_offset 16
  48              		.loc 1 27 0
  49 0012 B4EEE77A 		vcmpe.f32	s14, s15
  50              		.loc 1 14 0
  51 0016 1A68     		ldr	r2, [r3]
  52 0018 0192     		str	r2, [sp, #4]
  53              	.LVL2:
  54              		.loc 1 27 0
  55 001a F1EE10FA 		vmrs	APSR_nzcv, FPSCR
  56 001e 36D4     		bmi	.L8
  57              		.loc 1 31 0
ARM GAS  C:\Users\alexi\AppData\Local\Temp\cclnBYDp.s 			page 2


  58 0020 214A     		ldr	r2, .L15+4
  59              		.loc 1 34 0
  60 0022 9FED227A 		vldr.32	s14, .L15+8
  61              		.loc 1 31 0
  62 0026 D2ED007A 		vldr.32	s15, [r2]
  63 002a 70EE277A 		vadd.f32	s15, s0, s15
  64              		.loc 1 34 0
  65 002e F4EEC77A 		vcmpe.f32	s15, s14
  66 0032 F1EE10FA 		vmrs	APSR_nzcv, FPSCR
  67 0036 1EDD     		ble	.L10
  68 0038 DFED1D7A 		vldr.32	s15, .L15+12
  69              		.loc 1 35 0
  70 003c 82ED007A 		vstr.32	s14, [r2]
  71              	.L5:
  72              		.loc 1 40 0
  73 0040 1C4A     		ldr	r2, .L15+16
  74 0042 9FED1D7A 		vldr.32	s14, .L15+20
  75 0046 D2ED000A 		vldr.32	s1, [r2]
  76              	.LVL3:
  77              		.loc 1 41 0
  78 004a 82ED000A 		vstr.32	s0, [r2]
  79              		.loc 1 40 0
  80 004e E0EE077A 		vfma.f32	s15, s0, s14
  81 0052 30EE600A 		vsub.f32	s0, s0, s1
  82              	.LVL4:
  83 0056 B1EE0C7A 		vmov.f32	s14, #7.0e+0
  84 005a E0EE077A 		vfma.f32	s15, s0, s14
  85              	.LVL5:
  86              		.loc 1 42 0
  87 005e FDEEE77A 		vcvt.s32.f32	s15, s15
  88              	.LVL6:
  89 0062 17EE902A 		vmov	r2, s15	@ int
  90 0066 10B2     		sxth	r0, r2
  91              	.LVL7:
  92              	.L2:
  93              		.loc 1 43 0
  94 0068 019A     		ldr	r2, [sp, #4]
  95 006a 1B68     		ldr	r3, [r3]
  96 006c 9A42     		cmp	r2, r3
  97 006e 17D1     		bne	.L13
  98 0070 03B0     		add	sp, sp, #12
  99              		.cfi_remember_state
 100              		.cfi_def_cfa_offset 4
 101              		@ sp needed
 102 0072 5DF804FB 		ldr	pc, [sp], #4
 103              	.LVL8:
 104              	.L10:
 105              		.cfi_restore_state
 106              		.loc 1 36 0
 107 0076 9FED117A 		vldr.32	s14, .L15+24
 108 007a F4EEC77A 		vcmpe.f32	s15, s14
 109 007e F1EE10FA 		vmrs	APSR_nzcv, FPSCR
 110 0082 06D5     		bpl	.L14
 111              		.loc 1 37 0
 112 0084 DFED0E7A 		vldr.32	s15, .L15+28
 113 0088 82ED007A 		vstr.32	s14, [r2]
 114 008c D8E7     		b	.L5
ARM GAS  C:\Users\alexi\AppData\Local\Temp\cclnBYDp.s 			page 3


 115              	.L8:
 116              		.loc 1 28 0
 117 008e 0020     		movs	r0, #0
 118 0090 EAE7     		b	.L2
 119              	.L14:
 120 0092 B1EE0C7A 		vmov.f32	s14, #7.0e+0
 121              		.loc 1 31 0
 122 0096 C2ED007A 		vstr.32	s15, [r2]
 123 009a 67EE877A 		vmul.f32	s15, s15, s14
 124 009e CFE7     		b	.L5
 125              	.LVL9:
 126              	.L13:
 127              		.loc 1 43 0
 128 00a0 FFF7FEFF 		bl	__stack_chk_fail
 129              	.LVL10:
 130              	.L16:
 131              		.align	2
 132              	.L15:
 133 00a4 00000000 		.word	__stack_chk_guard
 134 00a8 00000000 		.word	.LANCHOR0
 135 00ac 92241D43 		.word	1125983378
 136 00b0 00808944 		.word	1149861888
 137 00b4 00000000 		.word	.LANCHOR1
 138 00b8 0000C843 		.word	1137180672
 139 00bc 92241DC3 		.word	-1021500270
 140 00c0 008089C4 		.word	-997621760
 141              		.cfi_endproc
 142              	.LFE257:
 143              		.size	pi_regulator, .-pi_regulator
 144              		.section	.text.PiRegulator,"ax",%progbits
 145              		.align	1
 146              		.p2align 4,,15
 147              		.syntax unified
 148              		.thumb
 149              		.thumb_func
 150              		.fpu fpv4-sp-d16
 151              		.type	PiRegulator, %function
 152              	PiRegulator:
 153              	.LFB258:
 154              		.loc 1 46 0
 155              		.cfi_startproc
 156              		@ args = 0, pretend = 0, frame = 8
 157              		@ frame_needed = 0, uses_anonymous_args = 0
 158              	.LVL11:
 159 0000 2DE9F043 		push	{r4, r5, r6, r7, r8, r9, lr}
 160              		.cfi_def_cfa_offset 28
 161              		.cfi_offset 4, -28
 162              		.cfi_offset 5, -24
 163              		.cfi_offset 6, -20
 164              		.cfi_offset 7, -16
 165              		.cfi_offset 8, -12
 166              		.cfi_offset 9, -8
 167              		.cfi_offset 14, -4
 168              	.LBB48:
 169              	.LBB49:
 170              		.file 2 "../../lib/e-puck2_main-processor/ChibiOS//os/rt/include/chregistry.h"
 171              		.loc 2 135 0
ARM GAS  C:\Users\alexi\AppData\Local\Temp\cclnBYDp.s 			page 4


 172 0004 1B4C     		ldr	r4, .L22
 173              	.LBE49:
 174              	.LBE48:
 175              		.loc 1 46 0
 176 0006 1C4B     		ldr	r3, .L22+4
 177              	.LBB52:
 178              	.LBB50:
 179              		.loc 2 135 0
 180 0008 A269     		ldr	r2, [r4, #24]
 181 000a 1C49     		ldr	r1, .L22+8
 182              	.LBE50:
 183              	.LBE52:
 184              		.loc 1 46 0
 185 000c 1B68     		ldr	r3, [r3]
 186              	.LBB53:
 187              	.LBB54:
 188              	.LBB55:
 189              	.LBB56:
 190              		.file 3 "../../lib/e-puck2_main-processor/ChibiOS//os/rt/include/chsys.h"
 191              		.loc 3 367 0
 192 000e DFF87090 		ldr	r9, .L22+12
 193              	.LBE56:
 194              	.LBE55:
 195              	.LBE54:
 196              	.LBE53:
 197              	.LBB81:
 198              	.LBB51:
 199              		.loc 2 135 0
 200 0012 9161     		str	r1, [r2, #24]
 201              	.LBE51:
 202              	.LBE81:
 203              		.loc 1 46 0
 204 0014 83B0     		sub	sp, sp, #12
 205              		.cfi_def_cfa_offset 40
 206              	.LBB82:
 207              	.LBB79:
 208              	.LBB65:
 209              	.LBB66:
 210              	.LBB67:
 211              	.LBB68:
 212              	.LBB69:
 213              		.file 4 "../../lib/e-puck2_main-processor/ChibiOS//os/ext/CMSIS/include/core_cmFunc.h"
 214              		.loc 4 546 0
 215 0016 4FF02008 		mov	r8, #32
 216              	.LBE69:
 217              	.LBE68:
 218              	.LBE67:
 219              	.LBE66:
 220              	.LBE65:
 221              	.LBE79:
 222              	.LBE82:
 223              		.loc 1 46 0
 224 001a 0193     		str	r3, [sp, #4]
 225              	.LVL12:
 226              	.LBB83:
 227              	.LBB80:
 228              	.LBB74:
ARM GAS  C:\Users\alexi\AppData\Local\Temp\cclnBYDp.s 			page 5


 229              	.LBB63:
 230              	.LBB57:
 231              	.LBB58:
 232              	.LBB59:
 233              		.loc 4 546 0
 234 001c 0027     		movs	r7, #0
 235              	.LVL13:
 236              	.L19:
 237              	.LBE59:
 238              	.LBE58:
 239              	.LBE57:
 240              	.LBE63:
 241              	.LBE74:
 242              	.LBB75:
 243              	.LBB73:
 244              	.LBB72:
 245              	.LBB71:
 246              	.LBB70:
 247              		.loc 4 546 0 is_stmt 0 discriminator 1
 248              		.syntax unified
 249              	@ 546 "../../lib/e-puck2_main-processor/ChibiOS//os/ext/CMSIS/include/core_cmFunc.h" 1
 250 001e 88F31188 		MSR basepri, r8
 251              	@ 0 "" 2
 252              	.LVL14:
 253              		.thumb
 254              		.syntax unified
 255              	.LBE70:
 256              	.LBE71:
 257              	.LBE72:
 258              		.loc 3 349 0 is_stmt 1 discriminator 1
 259 0022 FFF7FEFF 		bl	_stats_start_measure_crit_thd
 260              	.LVL15:
 261              		.loc 3 350 0 discriminator 1
 262 0026 FFF7FEFF 		bl	_dbg_check_lock
 263              	.LVL16:
 264              	.LBE73:
 265              	.LBE75:
 266              	.LBB76:
 267              	.LBB77:
 268              		.file 5 "../../lib/e-puck2_main-processor/ChibiOS//os/rt/include/chvt.h"
 269              		.loc 5 231 0 discriminator 1
 270 002a A56A     		ldr	r5, [r4, #40]
 271              	.LBE77:
 272              	.LBE76:
 273              	.LBB78:
 274              	.LBB64:
 275              		.loc 3 360 0 discriminator 1
 276 002c FFF7FEFF 		bl	_dbg_check_unlock
 277              	.LVL17:
 278              		.loc 3 361 0 discriminator 1
 279 0030 FFF7FEFF 		bl	_stats_stop_measure_crit_thd
 280              	.LVL18:
 281              		.loc 3 367 0 discriminator 1
 282 0034 2368     		ldr	r3, [r4]
 283 0036 A342     		cmp	r3, r4
 284 0038 07D0     		beq	.L18
 285              		.loc 3 367 0 is_stmt 0
ARM GAS  C:\Users\alexi\AppData\Local\Temp\cclnBYDp.s 			page 6


 286 003a A269     		ldr	r2, [r4, #24]
 287 003c 9B68     		ldr	r3, [r3, #8]
 288 003e 9268     		ldr	r2, [r2, #8]
 289 0040 9A42     		cmp	r2, r3
 290 0042 02D2     		bcs	.L18
 291 0044 4846     		mov	r0, r9
 292 0046 FFF7FEFF 		bl	chSysHalt
 293              	.LVL19:
 294              	.L18:
 295              	.LBB62:
 296              	.LBB61:
 297              	.LBB60:
 298              		.loc 4 546 0 is_stmt 1
 299              		.syntax unified
 300              	@ 546 "../../lib/e-puck2_main-processor/ChibiOS//os/ext/CMSIS/include/core_cmFunc.h" 1
 301 004a 87F31188 		MSR basepri, r7
 302              	@ 0 "" 2
 303              	.LVL20:
 304              		.thumb
 305              		.syntax unified
 306              	.LBE60:
 307              	.LBE61:
 308              	.LBE62:
 309              	.LBE64:
 310              	.LBE78:
 311              	.LBE80:
 312              	.LBE83:
 313              		.loc 1 65 0
 314 004e FFF7FEFF 		bl	get_distance_cm
 315              	.LVL21:
 316 0052 F2EE040A 		vmov.f32	s1, #1.0e+1
 317 0056 FFF7FEFF 		bl	pi_regulator
 318              	.LVL22:
 319 005a 0646     		mov	r6, r0
 320              	.LVL23:
 321              		.loc 1 75 0
 322 005c FFF7FEFF 		bl	right_motor_set_speed
 323              	.LVL24:
 324              		.loc 1 76 0
 325 0060 3046     		mov	r0, r6
 326 0062 FFF7FEFF 		bl	left_motor_set_speed
 327              	.LVL25:
 328              		.loc 1 79 0
 329 0066 05F10A01 		add	r1, r5, #10
 330 006a 2846     		mov	r0, r5
 331 006c FFF7FEFF 		bl	chThdSleepUntilWindowed
 332              	.LVL26:
 333 0070 D5E7     		b	.L19
 334              	.L23:
 335 0072 00BF     		.align	2
 336              	.L22:
 337 0074 00000000 		.word	ch
 338 0078 00000000 		.word	__stack_chk_guard
 339 007c 00000000 		.word	.LANCHOR2
 340 0080 00000000 		.word	.LANCHOR3
 341              		.cfi_endproc
 342              	.LFE258:
ARM GAS  C:\Users\alexi\AppData\Local\Temp\cclnBYDp.s 			page 7


 343              		.size	PiRegulator, .-PiRegulator
 344              		.section	.text.pi_regulator_start,"ax",%progbits
 345              		.align	1
 346              		.p2align 4,,15
 347              		.global	pi_regulator_start
 348              		.syntax unified
 349              		.thumb
 350              		.thumb_func
 351              		.fpu fpv4-sp-d16
 352              		.type	pi_regulator_start, %function
 353              	pi_regulator_start:
 354              	.LFB259:
 355              		.loc 1 83 0
 356              		.cfi_startproc
 357              		@ args = 0, pretend = 0, frame = 8
 358              		@ frame_needed = 0, uses_anonymous_args = 0
 359 0000 10B5     		push	{r4, lr}
 360              		.cfi_def_cfa_offset 8
 361              		.cfi_offset 4, -8
 362              		.cfi_offset 14, -4
 363 0002 0A4C     		ldr	r4, .L28
 364              		.loc 1 84 0
 365 0004 0A4B     		ldr	r3, .L28+4
 366              		.loc 1 83 0
 367 0006 2268     		ldr	r2, [r4]
 368              		.loc 1 84 0
 369 0008 0A48     		ldr	r0, .L28+8
 370              		.loc 1 83 0
 371 000a 84B0     		sub	sp, sp, #16
 372              		.cfi_def_cfa_offset 24
 373              		.loc 1 84 0
 374 000c 4FF41E71 		mov	r1, #632
 375              		.loc 1 83 0
 376 0010 0392     		str	r2, [sp, #12]
 377              		.loc 1 84 0
 378 0012 0022     		movs	r2, #0
 379 0014 0092     		str	r2, [sp]
 380 0016 4022     		movs	r2, #64
 381 0018 FFF7FEFF 		bl	chThdCreateStatic
 382              	.LVL27:
 383              		.loc 1 85 0
 384 001c 039A     		ldr	r2, [sp, #12]
 385 001e 2368     		ldr	r3, [r4]
 386 0020 9A42     		cmp	r2, r3
 387 0022 01D1     		bne	.L27
 388 0024 04B0     		add	sp, sp, #16
 389              		.cfi_remember_state
 390              		.cfi_def_cfa_offset 8
 391              		@ sp needed
 392 0026 10BD     		pop	{r4, pc}
 393              	.L27:
 394              		.cfi_restore_state
 395 0028 FFF7FEFF 		bl	__stack_chk_fail
 396              	.LVL28:
 397              	.L29:
 398              		.align	2
 399              	.L28:
ARM GAS  C:\Users\alexi\AppData\Local\Temp\cclnBYDp.s 			page 8


 400 002c 00000000 		.word	__stack_chk_guard
 401 0030 00000000 		.word	PiRegulator
 402 0034 00000000 		.word	.LANCHOR4
 403              		.cfi_endproc
 404              	.LFE259:
 405              		.size	pi_regulator_start, .-pi_regulator_start
 406              		.section	.bss.previous_error.11853,"aw",%nobits
 407              		.align	2
 408              		.set	.LANCHOR1,. + 0
 409              		.type	previous_error.11853, %object
 410              		.size	previous_error.11853, 4
 411              	previous_error.11853:
 412 0000 00000000 		.space	4
 413              		.section	.bss.sum_error.11852,"aw",%nobits
 414              		.align	2
 415              		.set	.LANCHOR0,. + 0
 416              		.type	sum_error.11852, %object
 417              		.size	sum_error.11852, 4
 418              	sum_error.11852:
 419 0000 00000000 		.space	4
 420              		.section	.bss.waPiRegulator,"aw",%nobits
 421              		.align	3
 422              		.set	.LANCHOR4,. + 0
 423              		.type	waPiRegulator, %object
 424              		.size	waPiRegulator, 632
 425              	waPiRegulator:
 426 0000 00000000 		.space	632
 426      00000000 
 426      00000000 
 426      00000000 
 426      00000000 
 427              		.section	.rodata.__FUNCTION__.11858,"a",%progbits
 428              		.align	2
 429              		.set	.LANCHOR2,. + 0
 430              		.type	__FUNCTION__.11858, %object
 431              		.size	__FUNCTION__.11858, 12
 432              	__FUNCTION__.11858:
 433 0000 50695265 		.ascii	"PiRegulator\000"
 433      67756C61 
 433      746F7200 
 434              		.section	.rodata.__func__.7153,"a",%progbits
 435              		.align	2
 436              		.set	.LANCHOR3,. + 0
 437              		.type	__func__.7153, %object
 438              		.size	__func__.7153, 12
 439              	__func__.7153:
 440 0000 63685379 		.ascii	"chSysUnlock\000"
 440      73556E6C 
 440      6F636B00 
 441              		.text
 442              	.Letext0:
 443              		.file 6 "c:\\users\\alexi\\desktop\\systemes_embarques_et_robotique\\eclipse_e-puck2\\tools\\gcc-a
 444              		.file 7 "c:\\users\\alexi\\desktop\\systemes_embarques_et_robotique\\eclipse_e-puck2\\tools\\gcc-a
 445              		.file 8 "c:\\users\\alexi\\desktop\\systemes_embarques_et_robotique\\eclipse_e-puck2\\tools\\gcc-a
 446              		.file 9 "../../lib/e-puck2_main-processor/ChibiOS//os/rt/ports/ARMCMx/compilers/GCC/chtypes.h"
 447              		.file 10 "../../lib/e-puck2_main-processor/ChibiOS//os/rt/include/chsystypes.h"
 448              		.file 11 "../../lib/e-puck2_main-processor/ChibiOS//os/rt/include/chschd.h"
ARM GAS  C:\Users\alexi\AppData\Local\Temp\cclnBYDp.s 			page 9


 449              		.file 12 "../../lib/e-puck2_main-processor/ChibiOS//os/ext/CMSIS/include/core_cm4.h"
 450              		.file 13 "../../lib/e-puck2_main-processor/ChibiOS//os/ext/CMSIS/ST/system_stm32f4xx.h"
 451              		.file 14 "../../lib/e-puck2_main-processor/ChibiOS//os/ext/CMSIS/ST/stm32f407xx.h"
 452              		.file 15 "../../lib/e-puck2_main-processor/ChibiOS//os/rt/ports/ARMCMx/chcore.h"
 453              		.file 16 "../../lib/e-puck2_main-processor/ChibiOS//os/rt/ports/ARMCMx/chcore_v7m.h"
 454              		.file 17 "../../lib/e-puck2_main-processor/ChibiOS//os/rt/include/chdebug.h"
 455              		.file 18 "../../lib/e-puck2_main-processor/ChibiOS//os/rt/include/chtm.h"
 456              		.file 19 "../../lib/e-puck2_main-processor/ChibiOS//os/rt/include/chstats.h"
 457              		.file 20 "../../lib/e-puck2_main-processor/ChibiOS//os/rt/include/chsem.h"
 458              		.file 21 "../../lib/e-puck2_main-processor/ChibiOS//os/rt/include/chmtx.h"
 459              		.file 22 "../../lib/e-puck2_main-processor/ChibiOS//os/rt/include/chevents.h"
 460              		.file 23 "../../lib/e-puck2_main-processor/ChibiOS//os/rt/include/chqueues.h"
 461              		.file 24 "../../lib/e-puck2_main-processor/ChibiOS//os/hal/ports/STM32/STM32F4xx/stm32_dma.h"
 462              		.file 25 "../../lib/e-puck2_main-processor/ChibiOS//os/hal/include/hal_ioblock.h"
 463              		.file 26 "../../lib/e-puck2_main-processor/ChibiOS//os/hal/ports/STM32/LLD/GPIOv2/pal_lld.h"
 464              		.file 27 "../../lib/e-puck2_main-processor/ChibiOS//os/hal/include/adc.h"
 465              		.file 28 "../../lib/e-puck2_main-processor/ChibiOS//os/hal/ports/STM32/STM32F4xx/adc_lld.h"
 466              		.file 29 "../../lib/e-puck2_main-processor/ChibiOS//os/hal/include/can.h"
 467              		.file 30 "../../lib/e-puck2_main-processor/ChibiOS//os/hal/ports/STM32/LLD/can_lld.h"
 468              		.file 31 "../../lib/e-puck2_main-processor/ChibiOS//os/hal/include/dac.h"
 469              		.file 32 "../../lib/e-puck2_main-processor/ChibiOS//os/hal/ports/STM32/LLD/DACv1/dac_lld.h"
 470              		.file 33 "../../lib/e-puck2_main-processor/ChibiOS//os/hal/include/ext.h"
 471              		.file 34 "../../lib/e-puck2_main-processor/ChibiOS//os/hal/ports/STM32/LLD/ext_lld.h"
 472              		.file 35 "../../lib/e-puck2_main-processor/ChibiOS//os/hal/include/gpt.h"
 473              		.file 36 "../../lib/e-puck2_main-processor/ChibiOS//os/hal/ports/STM32/LLD/TIMv1/gpt_lld.h"
 474              		.file 37 "../../lib/e-puck2_main-processor/ChibiOS//os/hal/ports/STM32/LLD/TIMv1/stm32_tim.h"
 475              		.file 38 "../../lib/e-puck2_main-processor/ChibiOS//os/hal/include/i2c.h"
 476              		.file 39 "../../lib/e-puck2_main-processor/ChibiOS//os/hal/ports/STM32/LLD/I2Cv1/i2c_lld.h"
 477              		.file 40 "../../lib/e-puck2_main-processor/ChibiOS//os/hal/include/i2s.h"
 478              		.file 41 "../../lib/e-puck2_main-processor/ChibiOS//os/hal/ports/STM32/LLD/SPIv1/i2s_lld.h"
 479              		.file 42 "../../lib/e-puck2_main-processor/ChibiOS//os/hal/include/pwm.h"
 480              		.file 43 "../../lib/e-puck2_main-processor/ChibiOS//os/hal/ports/STM32/LLD/TIMv1/pwm_lld.h"
 481              		.file 44 "../../lib/e-puck2_main-processor/ChibiOS//os/hal/include/serial.h"
 482              		.file 45 "../../lib/e-puck2_main-processor/ChibiOS//os/hal/ports/STM32/LLD/USARTv1/serial_lld.h"
 483              		.file 46 "../../lib/e-puck2_main-processor/ChibiOS//os/hal/include/sdc.h"
 484              		.file 47 "../../lib/e-puck2_main-processor/ChibiOS//os/hal/ports/STM32/LLD/sdc_lld.h"
 485              		.file 48 "../../lib/e-puck2_main-processor/ChibiOS//os/hal/include/spi.h"
 486              		.file 49 "../../lib/e-puck2_main-processor/ChibiOS//os/hal/ports/STM32/LLD/SPIv1/spi_lld.h"
 487              		.file 50 "../../lib/e-puck2_main-processor/ChibiOS//os/hal/include/usb.h"
 488              		.file 51 "../../lib/e-puck2_main-processor/ChibiOS//os/hal/ports/STM32/LLD/OTGv1/usb_lld.h"
 489              		.file 52 "../../lib/e-puck2_main-processor/ChibiOS//os/hal/ports/STM32/LLD/OTGv1/stm32_otg.h"
 490              		.file 53 "../../lib/e-puck2_main-processor/ChibiOS//os/hal/include/serial_usb.h"
 491              		.file 54 "c:\\users\\alexi\\desktop\\systemes_embarques_et_robotique\\eclipse_e-puck2\\tools\\gcc-
 492              		.file 55 "c:\\users\\alexi\\desktop\\systemes_embarques_et_robotique\\eclipse_e-puck2\\tools\\gcc-
 493              		.file 56 "c:\\users\\alexi\\desktop\\systemes_embarques_et_robotique\\eclipse_e-puck2\\tools\\gcc-
 494              		.file 57 "c:\\users\\alexi\\desktop\\systemes_embarques_et_robotique\\eclipse_e-puck2\\tools\\gcc-
 495              		.file 58 "../../lib/e-puck2_main-processor/src/usbcfg.h"
 496              		.file 59 "../../lib/e-puck2_main-processor/ChibiOS_ext/os/hal/include/../ports/STM32/STM32F4xx/dcm
 497              		.file 60 "c:\\users\\alexi\\desktop\\systemes_embarques_et_robotique\\eclipse_e-puck2\\tools\\gcc-
 498              		.file 61 "../../lib/e-puck2_main-processor/src/msgbus/messagebus.h"
 499              		.file 62 "c:\\users\\alexi\\desktop\\systemes_embarques_et_robotique\\eclipse_e-puck2\\tools\\gcc-
 500              		.file 63 "../../lib/e-puck2_main-processor/src/parameter/parameter.h"
 501              		.file 64 "./main.h"
 502              		.file 65 "../../lib/e-puck2_main-processor/ChibiOS//os/rt/include/chthreads.h"
 503              		.file 66 "./process_image.h"
 504              		.file 67 "../../lib/e-puck2_main-processor/src/motors.h"