ARM GAS  C:\Users\alexi\AppData\Local\Temp\cc0Ctyd6.s 			page 1


   1              		.cpu cortex-m4
   2              		.eabi_attribute 27, 1
   3              		.eabi_attribute 28, 1
   4              		.eabi_attribute 20, 1
   5              		.eabi_attribute 21, 1
   6              		.eabi_attribute 23, 3
   7              		.eabi_attribute 24, 1
   8              		.eabi_attribute 25, 1
   9              		.eabi_attribute 26, 1
  10              		.eabi_attribute 30, 2
  11              		.eabi_attribute 34, 1
  12              		.eabi_attribute 18, 4
  13              		.file	"process_image.c"
  14              		.text
  15              	.Ltext0:
  16              		.cfi_sections	.debug_frame
  17              		.section	.text.chprintf.constprop.0,"ax",%progbits
  18              		.align	1
  19              		.p2align 4,,15
  20              		.syntax unified
  21              		.thumb
  22              		.thumb_func
  23              		.fpu fpv4-sp-d16
  24              		.type	chprintf.constprop.0, %function
  25              	chprintf.constprop.0:
  26              	.LFB264:
  27              		.file 1 "../../lib/e-puck2_main-processor/ChibiOS//os/hal/lib/streams/chprintf.h"
  28              		.loc 1 69 0
  29              		.cfi_startproc
  30              		@ args = 4, pretend = 12, frame = 8
  31              		@ frame_needed = 0, uses_anonymous_args = 1
  32              	.LVL0:
  33 0000 0EB4     		push	{r1, r2, r3}
  34              		.cfi_def_cfa_offset 12
  35              		.cfi_offset 1, -12
  36              		.cfi_offset 2, -8
  37              		.cfi_offset 3, -4
  38 0002 10B5     		push	{r4, lr}
  39              		.cfi_def_cfa_offset 20
  40              		.cfi_offset 4, -20
  41              		.cfi_offset 14, -16
  42 0004 0A4C     		ldr	r4, .L6
  43              		.loc 1 74 0
  44 0006 0B49     		ldr	r1, .L6+4
  45              		.loc 1 69 0
  46 0008 2368     		ldr	r3, [r4]
  47              		.loc 1 74 0
  48 000a 0B48     		ldr	r0, .L6+8
  49              	.LVL1:
  50              		.loc 1 69 0
  51 000c 83B0     		sub	sp, sp, #12
  52              		.cfi_def_cfa_offset 32
  53              		.loc 1 69 0
  54 000e 0193     		str	r3, [sp, #4]
  55              	.LVL2:
  56              		.loc 1 73 0
  57 0010 06AB     		add	r3, sp, #24
ARM GAS  C:\Users\alexi\AppData\Local\Temp\cc0Ctyd6.s 			page 2


  58              		.loc 1 74 0
  59 0012 1A46     		mov	r2, r3
  60              		.loc 1 73 0
  61 0014 0093     		str	r3, [sp]
  62              		.loc 1 74 0
  63 0016 FFF7FEFF 		bl	chvprintf
  64              	.LVL3:
  65              		.loc 1 78 0
  66 001a 019A     		ldr	r2, [sp, #4]
  67 001c 2368     		ldr	r3, [r4]
  68 001e 9A42     		cmp	r2, r3
  69 0020 04D1     		bne	.L5
  70 0022 03B0     		add	sp, sp, #12
  71              		.cfi_remember_state
  72              		.cfi_def_cfa_offset 20
  73              		@ sp needed
  74 0024 BDE81040 		pop	{r4, lr}
  75              		.cfi_restore 14
  76              		.cfi_restore 4
  77              		.cfi_def_cfa_offset 12
  78 0028 03B0     		add	sp, sp, #12
  79              		.cfi_restore 3
  80              		.cfi_restore 2
  81              		.cfi_restore 1
  82              		.cfi_def_cfa_offset 0
  83 002a 7047     		bx	lr
  84              	.L5:
  85              		.cfi_restore_state
  86 002c FFF7FEFF 		bl	__stack_chk_fail
  87              	.LVL4:
  88              	.L7:
  89              		.align	2
  90              	.L6:
  91 0030 00000000 		.word	__stack_chk_guard
  92 0034 00000000 		.word	.LC0
  93 0038 00000000 		.word	SD3
  94              		.cfi_endproc
  95              	.LFE264:
  96              		.size	chprintf.constprop.0, .-chprintf.constprop.0
  97              		.global	__aeabi_f2d
  98              		.section	.text.ProcessImage,"ax",%progbits
  99              		.align	1
 100              		.p2align 4,,15
 101              		.syntax unified
 102              		.thumb
 103              		.thumb_func
 104              		.fpu fpv4-sp-d16
 105              		.type	ProcessImage, %function
 106              	ProcessImage:
 107              	.LFB258:
 108              		.file 2 "process_image.c"
 109              		.loc 2 50 0
 110              		.cfi_startproc
 111              		@ args = 0, pretend = 0, frame = 656
 112              		@ frame_needed = 0, uses_anonymous_args = 0
 113              	.LVL5:
 114 0000 2DE9F04F 		push	{r4, r5, r6, r7, r8, r9, r10, fp, lr}
ARM GAS  C:\Users\alexi\AppData\Local\Temp\cc0Ctyd6.s 			page 3


 115              		.cfi_def_cfa_offset 36
 116              		.cfi_offset 4, -36
 117              		.cfi_offset 5, -32
 118              		.cfi_offset 6, -28
 119              		.cfi_offset 7, -24
 120              		.cfi_offset 8, -20
 121              		.cfi_offset 9, -16
 122              		.cfi_offset 10, -12
 123              		.cfi_offset 11, -8
 124              		.cfi_offset 14, -4
 125 0004 2DED048B 		vpush.64	{d8, d9}
 126              		.cfi_def_cfa_offset 52
 127              		.cfi_offset 80, -52
 128              		.cfi_offset 81, -48
 129              		.cfi_offset 82, -44
 130              		.cfi_offset 83, -40
 131              	.LBB47:
 132              	.LBB48:
 133              		.file 3 "../../lib/e-puck2_main-processor/ChibiOS//os/rt/include/chregistry.h"
 134              		.loc 3 135 0
 135 0008 574A     		ldr	r2, .L44+8
 136              	.LBE48:
 137              	.LBE47:
 138              		.loc 2 50 0
 139 000a 584B     		ldr	r3, .L44+12
 140              	.LBB50:
 141              	.LBB49:
 142              		.loc 3 135 0
 143 000c 9269     		ldr	r2, [r2, #24]
 144 000e 5849     		ldr	r1, .L44+16
 145 0010 9161     		str	r1, [r2, #24]
 146              	.LBE49:
 147              	.LBE50:
 148              		.loc 2 50 0
 149 0012 ADF5277D 		sub	sp, sp, #668
 150              		.cfi_def_cfa_offset 720
 151              		.loc 2 56 0
 152 0016 05AC     		add	r4, sp, #20
 153              		.loc 2 50 0
 154 0018 1B68     		ldr	r3, [r3]
 155 001a A593     		str	r3, [sp, #660]
 156              		.loc 2 56 0
 157 001c 2046     		mov	r0, r4
 158              	.LVL6:
 159 001e 4FF42072 		mov	r2, #640
 160 0022 0021     		movs	r1, #0
 161 0024 FFF7FEFF 		bl	memset
 162              	.LVL7:
 163 0028 524F     		ldr	r7, .L44+20
 164 002a DFF86491 		ldr	r9, .L44+48
 165 002e DFF864A1 		ldr	r10, .L44+52
 166              	.LBB51:
 167              	.LBB52:
 168              		.file 4 "../../lib/e-puck2_main-processor/ChibiOS//os/rt/include/chbsem.h"
 169              		.loc 4 143 0
 170 0032 DFF86481 		ldr	r8, .L44+56
 171              	.LBE52:
ARM GAS  C:\Users\alexi\AppData\Local\Temp\cc0Ctyd6.s 			page 4


 172              	.LBE51:
 173              	.LBB54:
 174              	.LBB55:
 175              		.loc 2 160 0
 176 0036 9FED508A 		vldr.32	s16, .L44+24
 177 003a DFED509A 		vldr.32	s19, .L44+28
 178              		.loc 2 162 0
 179 003e 9FED509A 		vldr.32	s18, .L44+32
 180 0042 0DF29325 		addw	r5, sp, #659
 181 0046 0DF11906 		add	r6, sp, #25
 182              	.LVL8:
 183              	.L26:
 184              	.LBE55:
 185              	.LBE54:
 186              	.LBB59:
 187              	.LBB53:
 188              		.loc 4 143 0
 189 004a 4046     		mov	r0, r8
 190 004c FFF7FEFF 		bl	chSemWait
 191              	.LVL9:
 192              	.LBE53:
 193              	.LBE59:
 194              	.LBB60:
 195              	.LBB61:
 196 0050 4046     		mov	r0, r8
 197 0052 FFF7FEFF 		bl	chSemWait
 198              	.LVL10:
 199              	.LBE61:
 200              	.LBE60:
 201              		.loc 2 65 0
 202 0056 FFF7FEFF 		bl	dcmi_get_last_image_ptr
 203              	.LVL11:
 204              	.LBB62:
 205              		.loc 2 66 0
 206 005a 0023     		movs	r3, #0
 207              	.LVL12:
 208              	.L9:
 209              		.loc 2 67 0 discriminator 3
 210 005c C25C     		ldrb	r2, [r0, r3]	@ zero_extendqisi2
 211 005e 5908     		lsrs	r1, r3, #1
 212              		.loc 2 66 0 discriminator 3
 213 0060 0233     		adds	r3, r3, #2
 214              	.LVL13:
 215              		.loc 2 67 0 discriminator 3
 216 0062 D208     		lsrs	r2, r2, #3
 217              		.loc 2 66 0 discriminator 3
 218 0064 B3F5A06F 		cmp	r3, #1280
 219              		.loc 2 67 0 discriminator 3
 220 0068 6254     		strb	r2, [r4, r1]
 221              		.loc 2 66 0 discriminator 3
 222 006a F7D1     		bne	.L9
 223 006c 0DF11303 		add	r3, sp, #19
 224              	.LVL14:
 225              	.LBE62:
 226              	.LBB63:
 227              	.LBB57:
 228              		.loc 2 94 0
ARM GAS  C:\Users\alexi\AppData\Local\Temp\cc0Ctyd6.s 			page 5


 229 0070 0022     		movs	r2, #0
 230              	.L10:
 231              	.LVL15:
 232              	.LBB56:
 233              		.loc 2 100 0
 234 0072 13F8011F 		ldrb	r1, [r3, #1]!	@ zero_extendqisi2
 235              	.LVL16:
 236              		.loc 2 99 0
 237 0076 9D42     		cmp	r5, r3
 238              		.loc 2 100 0
 239 0078 0A44     		add	r2, r2, r1
 240              	.LVL17:
 241              		.loc 2 99 0
 242 007a FAD1     		bne	.L10
 243              	.LBE56:
 244              		.loc 2 102 0
 245 007c 414B     		ldr	r3, .L44+36
 246              	.LVL18:
 247 007e 2078     		ldrb	r0, [r4]	@ zero_extendqisi2
 248              	.LVL19:
 249 0080 A3FB0232 		umull	r3, r2, r3, r2
 250              	.LVL20:
 251 0084 520A     		lsrs	r2, r2, #9
 252              	.LVL21:
 253              		.loc 2 97 0
 254 0086 0023     		movs	r3, #0
 255              		.loc 2 106 0
 256 0088 40F27A2C 		movw	ip, #634
 257              	.LVL22:
 258              	.L11:
 259              		.loc 2 110 0
 260 008c 8242     		cmp	r2, r0
 261 008e 03F10101 		add	r1, r3, #1
 262 0092 2ED2     		bcs	.L13
 263 0094 F05C     		ldrb	r0, [r6, r3]	@ zero_extendqisi2
 264 0096 8242     		cmp	r2, r0
 265 0098 2BD9     		bls	.L13
 266              	.LVL23:
 267              		.loc 2 118 0
 268 009a 6145     		cmp	r1, ip
 269 009c 0BD8     		bhi	.L12
 270 009e 53B1     		cbz	r3, .L12
 271 00a0 04EB030E 		add	lr, r4, r3
 272              	.LVL24:
 273              	.L20:
 274              		.loc 2 124 0
 275 00a4 1EF8010F 		ldrb	r0, [lr, #1]!	@ zero_extendqisi2
 276 00a8 8242     		cmp	r2, r0
 277 00aa 30D2     		bcs	.L16
 278 00ac 1EF805BC 		ldrb	fp, [lr, #-5]	@ zero_extendqisi2
 279 00b0 5A45     		cmp	r2, fp
 280 00b2 2CD9     		bls	.L16
 281              	.LVL25:
 282              		.loc 2 132 0
 283 00b4 11BB     		cbnz	r1, .L42
 284              	.LVL26:
 285              	.L12:
ARM GAS  C:\Users\alexi\AppData\Local\Temp\cc0Ctyd6.s 			page 6


 286              		.loc 2 155 0
 287 00b6 D7F800B0 		ldr	fp, [r7]
 288              	.LVL27:
 289 00ba D9F80020 		ldr	r2, [r9]
 290              	.LVL28:
 291              		.loc 2 160 0
 292 00be 07EE90BA 		vmov	s15, fp	@ int
 293 00c2 F8EE677A 		vcvt.f32.u32	s15, s15
 294 00c6 F4EEC87A 		vcmpe.f32	s15, s16
 295 00ca F1EE10FA 		vmrs	APSR_nzcv, FPSCR
 296 00ce 32D4     		bmi	.L27
 297              	.LVL29:
 298              	.LBE57:
 299              	.LBE63:
 300              		.loc 2 72 0
 301 00d0 BBF1000F 		cmp	fp, #0
 302 00d4 3AD1     		bne	.L22
 303 00d6 DAF80000 		ldr	r0, [r10]	@ float
 304 00da 0392     		str	r2, [sp, #12]
 305 00dc FFF7FEFF 		bl	__aeabi_f2d
 306              	.LVL30:
 307 00e0 039A     		ldr	r2, [sp, #12]
 308              	.L25:
 309              		.loc 2 75 0
 310 00e2 CDE90001 		strd	r0, [sp]
 311 00e6 5B46     		mov	r3, fp
 312 00e8 2749     		ldr	r1, .L44+40
 313 00ea 2848     		ldr	r0, .L44+44
 314 00ec FFF7FEFF 		bl	chprintf.constprop.0
 315              	.LVL31:
 316              		.loc 2 62 0
 317 00f0 ABE7     		b	.L26
 318              	.LVL32:
 319              	.L13:
 320              	.LBB64:
 321              	.LBB58:
 322              		.loc 2 106 0
 323 00f2 6145     		cmp	r1, ip
 324 00f4 DFD8     		bhi	.L12
 325 00f6 605C     		ldrb	r0, [r4, r1]	@ zero_extendqisi2
 326              	.LVL33:
 327 00f8 0B46     		mov	r3, r1
 328 00fa C7E7     		b	.L11
 329              	.LVL34:
 330              	.L42:
 331              		.loc 2 143 0
 332 00fc A1EB030B 		sub	fp, r1, r3
 333 0100 BBF11D0F 		cmp	fp, #29
 334 0104 08D8     		bhi	.L43
 335              	.LVL35:
 336              		.loc 2 106 0
 337 0106 6145     		cmp	r1, ip
 338 0108 D5D8     		bhi	.L12
 339 010a 0B46     		mov	r3, r1
 340 010c BEE7     		b	.L11
 341              	.LVL36:
 342              	.L16:
ARM GAS  C:\Users\alexi\AppData\Local\Temp\cc0Ctyd6.s 			page 7


 343              		.loc 2 129 0
 344 010e 0131     		adds	r1, r1, #1
 345              	.LVL37:
 346              		.loc 2 122 0
 347 0110 B1F5207F 		cmp	r1, #640
 348 0114 C6D1     		bne	.L20
 349 0116 CEE7     		b	.L12
 350              	.LVL38:
 351              	.L43:
 352              		.loc 2 160 0
 353 0118 07EE90BA 		vmov	s15, fp	@ int
 354 011c F8EE677A 		vcvt.f32.u32	s15, s15
 355              		.loc 2 158 0
 356 0120 CA18     		adds	r2, r1, r3
 357              	.LVL39:
 358              		.loc 2 160 0
 359 0122 F4EEC87A 		vcmpe.f32	s15, s16
 360              		.loc 2 158 0
 361 0126 5208     		lsrs	r2, r2, #1
 362              		.loc 2 160 0
 363 0128 F1EE10FA 		vmrs	APSR_nzcv, FPSCR
 364              		.loc 2 158 0
 365 012c C9F80020 		str	r2, [r9]
 366              		.loc 2 157 0
 367 0130 C7F800B0 		str	fp, [r7]
 368              		.loc 2 160 0
 369 0134 0AD5     		bpl	.L22
 370              	.LVL40:
 371              	.L27:
 372              		.loc 2 162 0
 373 0136 0AA1     		adr	r1, .L44
 374 0138 D1E90001 		ldrd	r0, [r1]
 375 013c 3E23     		movs	r3, #62
 376 013e 3B60     		str	r3, [r7]
 377              	.LVL41:
 378              		.loc 2 161 0
 379 0140 9B46     		mov	fp, r3
 380              		.loc 2 162 0
 381 0142 F0EE498A 		vmov.f32	s17, s18
 382              	.L24:
 383              	.LBE58:
 384              	.LBE64:
 385              		.loc 2 73 0
 386 0146 CAED008A 		vstr.32	s17, [r10]
 387 014a CAE7     		b	.L25
 388              	.L22:
 389 014c C9EEA78A 		vdiv.f32	s17, s19, s15
 390 0150 0392     		str	r2, [sp, #12]
 391 0152 18EE900A 		vmov	r0, s17
 392 0156 FFF7FEFF 		bl	__aeabi_f2d
 393              	.LVL42:
 394 015a 039A     		ldr	r2, [sp, #12]
 395 015c F3E7     		b	.L24
 396              	.L45:
 397 015e 00BF     		.align	3
 398              	.L44:
 399 0160 000000A0 		.word	-1610612736
ARM GAS  C:\Users\alexi\AppData\Local\Temp\cc0Ctyd6.s 			page 8


 400 0164 94523940 		.word	1077498516
 401 0168 00000000 		.word	ch
 402 016c 00000000 		.word	__stack_chk_guard
 403 0170 00000000 		.word	.LANCHOR0
 404 0174 00000000 		.word	.LANCHOR2
 405 0178 33337B42 		.word	1115370291
 406 017c 0040C444 		.word	1153712128
 407 0180 A594CA41 		.word	1103795365
 408 0184 CDCCCCCC 		.word	-858993459
 409 0188 00000000 		.word	.LC0
 410 018c 00000000 		.word	SD3
 411 0190 00000000 		.word	.LANCHOR3
 412 0194 00000000 		.word	.LANCHOR4
 413 0198 00000000 		.word	.LANCHOR1
 414              		.cfi_endproc
 415              	.LFE258:
 416              		.size	ProcessImage, .-ProcessImage
 417              		.section	.text.CaptureImage,"ax",%progbits
 418              		.align	1
 419              		.p2align 4,,15
 420              		.syntax unified
 421              		.thumb
 422              		.thumb_func
 423              		.fpu fpv4-sp-d16
 424              		.type	CaptureImage, %function
 425              	CaptureImage:
 426              	.LFB257:
 427              		.loc 2 23 0
 428              		.cfi_startproc
 429              		@ Volatile: function does not return.
 430              		@ args = 0, pretend = 0, frame = 8
 431              		@ frame_needed = 0, uses_anonymous_args = 0
 432              	.LVL43:
 433 0000 80B5     		push	{r7, lr}
 434              		.cfi_def_cfa_offset 8
 435              		.cfi_offset 7, -8
 436              		.cfi_offset 14, -4
 437              	.LBB81:
 438              	.LBB82:
 439              		.loc 3 135 0
 440 0002 234C     		ldr	r4, .L52
 441              	.LBE82:
 442              	.LBE81:
 443              		.loc 2 23 0
 444 0004 234A     		ldr	r2, .L52+4
 445              	.LBB85:
 446              	.LBB83:
 447              		.loc 3 135 0
 448 0006 A369     		ldr	r3, [r4, #24]
 449 0008 2349     		ldr	r1, .L52+8
 450              	.LBE83:
 451              	.LBE85:
 452              		.loc 2 23 0
 453 000a 1668     		ldr	r6, [r2]
 454              	.LBB86:
 455              	.LBB84:
 456              		.loc 3 135 0
ARM GAS  C:\Users\alexi\AppData\Local\Temp\cc0Ctyd6.s 			page 9


 457 000c 9961     		str	r1, [r3, #24]
 458              	.LBE84:
 459              	.LBE86:
 460              		.loc 2 23 0
 461 000e 86B0     		sub	sp, sp, #24
 462              		.cfi_def_cfa_offset 32
 463              		.loc 2 29 0
 464 0010 0223     		movs	r3, #2
 465 0012 2025     		movs	r5, #32
 466 0014 0A22     		movs	r2, #10
 467 0016 0021     		movs	r1, #0
 468 0018 0093     		str	r3, [sp]
 469              		.loc 2 23 0
 470 001a 0596     		str	r6, [sp, #20]
 471              		.loc 2 29 0
 472 001c 4FF42073 		mov	r3, #640
 473 0020 CDE90155 		strd	r5, r5, [sp, #4]
 474 0024 3020     		movs	r0, #48
 475              	.LVL44:
 476 0026 1D4E     		ldr	r6, .L52+12
 477              	.LBB87:
 478              	.LBB88:
 479              	.LBB89:
 480              	.LBB90:
 481              		.file 5 "../../lib/e-puck2_main-processor/ChibiOS//os/rt/include/chsys.h"
 482              		.loc 5 367 0
 483 0028 1D4F     		ldr	r7, .L52+16
 484              	.LBE90:
 485              	.LBE89:
 486              	.LBE88:
 487              	.LBE87:
 488              		.loc 2 29 0
 489 002a FFF7FEFF 		bl	po8030_advanced_config
 490              	.LVL45:
 491              		.loc 2 30 0
 492 002e FFF7FEFF 		bl	dcmi_enable_double_buffering
 493              	.LVL46:
 494              		.loc 2 31 0
 495 0032 0020     		movs	r0, #0
 496 0034 FFF7FEFF 		bl	dcmi_set_capture_mode
 497              	.LVL47:
 498              	.LBB108:
 499              	.LBB105:
 500              	.LBB95:
 501              	.LBB96:
 502              		.loc 4 271 0
 503 0038 B046     		mov	r8, r6
 504              	.LBE96:
 505              	.LBE95:
 506              	.LBE105:
 507              	.LBE108:
 508              		.loc 2 32 0
 509 003a FFF7FEFF 		bl	dcmi_prepare
 510              	.LVL48:
 511 003e 13E0     		b	.L49
 512              	.LVL49:
 513              	.L47:
ARM GAS  C:\Users\alexi\AppData\Local\Temp\cc0Ctyd6.s 			page 10


 514              	.LBB109:
 515              	.LBB106:
 516              		.loc 4 286 0
 517 0040 FFF7FEFF 		bl	chSchRescheduleS
 518              	.LVL50:
 519              	.LBB98:
 520              	.LBB94:
 521              		.loc 5 360 0
 522 0044 FFF7FEFF 		bl	_dbg_check_unlock
 523              	.LVL51:
 524              		.loc 5 361 0
 525 0048 FFF7FEFF 		bl	_stats_stop_measure_crit_thd
 526              	.LVL52:
 527              		.loc 5 367 0
 528 004c 2368     		ldr	r3, [r4]
 529 004e A342     		cmp	r3, r4
 530 0050 07D0     		beq	.L48
 531 0052 A269     		ldr	r2, [r4, #24]
 532 0054 9B68     		ldr	r3, [r3, #8]
 533 0056 9268     		ldr	r2, [r2, #8]
 534 0058 9A42     		cmp	r2, r3
 535 005a 02D2     		bcs	.L48
 536 005c 3846     		mov	r0, r7
 537 005e FFF7FEFF 		bl	chSysHalt
 538              	.LVL53:
 539              	.L48:
 540              	.LBB91:
 541              	.LBB92:
 542              	.LBB93:
 543              		.file 6 "../../lib/e-puck2_main-processor/ChibiOS//os/ext/CMSIS/include/core_cmFunc.h"
 544              		.loc 6 546 0
 545 0062 0023     		movs	r3, #0
 546              		.syntax unified
 547              	@ 546 "../../lib/e-puck2_main-processor/ChibiOS//os/ext/CMSIS/include/core_cmFunc.h" 1
 548 0064 83F31188 		MSR basepri, r3
 549              	@ 0 "" 2
 550              	.LVL54:
 551              		.thumb
 552              		.syntax unified
 553              	.L49:
 554              	.LBE93:
 555              	.LBE92:
 556              	.LBE91:
 557              	.LBE94:
 558              	.LBE98:
 559              	.LBE106:
 560              	.LBE109:
 561              		.loc 2 37 0 discriminator 1
 562 0068 FFF7FEFF 		bl	dcmi_capture_start
 563              	.LVL55:
 564              		.loc 2 39 0 discriminator 1
 565 006c FFF7FEFF 		bl	wait_image_ready
 566              	.LVL56:
 567              	.LBB110:
 568              	.LBB107:
 569              	.LBB99:
 570              	.LBB100:
ARM GAS  C:\Users\alexi\AppData\Local\Temp\cc0Ctyd6.s 			page 11


 571              	.LBB101:
 572              	.LBB102:
 573              	.LBB103:
 574              		.loc 6 546 0 discriminator 1
 575              		.syntax unified
 576              	@ 546 "../../lib/e-puck2_main-processor/ChibiOS//os/ext/CMSIS/include/core_cmFunc.h" 1
 577 0070 85F31188 		MSR basepri, r5
 578              	@ 0 "" 2
 579              	.LVL57:
 580              		.thumb
 581              		.syntax unified
 582              	.LBE103:
 583              	.LBE102:
 584              	.LBE101:
 585              		.loc 5 349 0 discriminator 1
 586 0074 FFF7FEFF 		bl	_stats_start_measure_crit_thd
 587              	.LVL58:
 588              		.loc 5 350 0 discriminator 1
 589 0078 FFF7FEFF 		bl	_dbg_check_lock
 590              	.LVL59:
 591              	.LBE100:
 592              	.LBE99:
 593              	.LBB104:
 594              	.LBB97:
 595              		.loc 4 268 0 discriminator 1
 596 007c FFF7FEFF 		bl	chDbgCheckClassI
 597              	.LVL60:
 598              		.loc 4 270 0 discriminator 1
 599 0080 B368     		ldr	r3, [r6, #8]
 600 0082 002B     		cmp	r3, #0
 601 0084 DCDC     		bgt	.L47
 602              		.loc 4 271 0
 603 0086 4046     		mov	r0, r8
 604 0088 FFF7FEFF 		bl	chSemSignalI
 605              	.LVL61:
 606 008c D8E7     		b	.L47
 607              	.L53:
 608 008e 00BF     		.align	2
 609              	.L52:
 610 0090 00000000 		.word	ch
 611 0094 00000000 		.word	__stack_chk_guard
 612 0098 00000000 		.word	.LANCHOR5
 613 009c 00000000 		.word	.LANCHOR1
 614 00a0 00000000 		.word	.LANCHOR6
 615              	.LBE97:
 616              	.LBE104:
 617              	.LBE107:
 618              	.LBE110:
 619              		.cfi_endproc
 620              	.LFE257:
 621              		.size	CaptureImage, .-CaptureImage
 622              		.section	.text.get_distance_cm,"ax",%progbits
 623              		.align	1
 624              		.p2align 4,,15
 625              		.global	get_distance_cm
 626              		.syntax unified
 627              		.thumb
ARM GAS  C:\Users\alexi\AppData\Local\Temp\cc0Ctyd6.s 			page 12


 628              		.thumb_func
 629              		.fpu fpv4-sp-d16
 630              		.type	get_distance_cm, %function
 631              	get_distance_cm:
 632              	.LFB259:
 633              		.loc 2 82 0
 634              		.cfi_startproc
 635              		@ args = 0, pretend = 0, frame = 8
 636              		@ frame_needed = 0, uses_anonymous_args = 0
 637 0000 00B5     		push	{lr}
 638              		.cfi_def_cfa_offset 4
 639              		.cfi_offset 14, -4
 640 0002 084B     		ldr	r3, .L58
 641              		.loc 2 83 0
 642 0004 0849     		ldr	r1, .L58+4
 643              		.loc 2 82 0
 644 0006 1A68     		ldr	r2, [r3]
 645              		.loc 2 84 0
 646 0008 91ED000A 		vldr.32	s0, [r1]
 647              		.loc 2 82 0
 648 000c 83B0     		sub	sp, sp, #12
 649              		.cfi_def_cfa_offset 16
 650              		.loc 2 82 0
 651 000e 0192     		str	r2, [sp, #4]
 652              		.loc 2 84 0
 653 0010 019A     		ldr	r2, [sp, #4]
 654 0012 1B68     		ldr	r3, [r3]
 655 0014 9A42     		cmp	r2, r3
 656 0016 02D1     		bne	.L57
 657 0018 03B0     		add	sp, sp, #12
 658              		.cfi_remember_state
 659              		.cfi_def_cfa_offset 4
 660              		@ sp needed
 661 001a 5DF804FB 		ldr	pc, [sp], #4
 662              	.L57:
 663              		.cfi_restore_state
 664 001e FFF7FEFF 		bl	__stack_chk_fail
 665              	.LVL62:
 666              	.L59:
 667 0022 00BF     		.align	2
 668              	.L58:
 669 0024 00000000 		.word	__stack_chk_guard
 670 0028 00000000 		.word	.LANCHOR4
 671              		.cfi_endproc
 672              	.LFE259:
 673              		.size	get_distance_cm, .-get_distance_cm
 674              		.section	.text.process_image_start,"ax",%progbits
 675              		.align	1
 676              		.p2align 4,,15
 677              		.global	process_image_start
 678              		.syntax unified
 679              		.thumb
 680              		.thumb_func
 681              		.fpu fpv4-sp-d16
 682              		.type	process_image_start, %function
 683              	process_image_start:
 684              	.LFB260:
ARM GAS  C:\Users\alexi\AppData\Local\Temp\cc0Ctyd6.s 			page 13


 685              		.loc 2 86 0
 686              		.cfi_startproc
 687              		@ args = 0, pretend = 0, frame = 8
 688              		@ frame_needed = 0, uses_anonymous_args = 0
 689 0000 30B5     		push	{r4, r5, lr}
 690              		.cfi_def_cfa_offset 12
 691              		.cfi_offset 4, -12
 692              		.cfi_offset 5, -8
 693              		.cfi_offset 14, -4
 694 0002 0E4C     		ldr	r4, .L64
 695              		.loc 2 87 0
 696 0004 0E4B     		ldr	r3, .L64+4
 697              		.loc 2 86 0
 698 0006 2268     		ldr	r2, [r4]
 699              		.loc 2 87 0
 700 0008 0E48     		ldr	r0, .L64+8
 701              		.loc 2 86 0
 702 000a 85B0     		sub	sp, sp, #20
 703              		.cfi_def_cfa_offset 32
 704              		.loc 2 87 0
 705 000c 0025     		movs	r5, #0
 706              		.loc 2 86 0
 707 000e 0392     		str	r2, [sp, #12]
 708              		.loc 2 87 0
 709 0010 4FF4AF61 		mov	r1, #1400
 710 0014 4022     		movs	r2, #64
 711 0016 0095     		str	r5, [sp]
 712 0018 FFF7FEFF 		bl	chThdCreateStatic
 713              	.LVL63:
 714              		.loc 2 88 0
 715 001c 0A4B     		ldr	r3, .L64+12
 716 001e 0095     		str	r5, [sp]
 717 0020 4022     		movs	r2, #64
 718 0022 0A48     		ldr	r0, .L64+16
 719 0024 4FF41E71 		mov	r1, #632
 720 0028 FFF7FEFF 		bl	chThdCreateStatic
 721              	.LVL64:
 722              		.loc 2 89 0
 723 002c 039A     		ldr	r2, [sp, #12]
 724 002e 2368     		ldr	r3, [r4]
 725 0030 9A42     		cmp	r2, r3
 726 0032 01D1     		bne	.L63
 727 0034 05B0     		add	sp, sp, #20
 728              		.cfi_remember_state
 729              		.cfi_def_cfa_offset 12
 730              		@ sp needed
 731 0036 30BD     		pop	{r4, r5, pc}
 732              	.L63:
 733              		.cfi_restore_state
 734 0038 FFF7FEFF 		bl	__stack_chk_fail
 735              	.LVL65:
 736              	.L65:
 737              		.align	2
 738              	.L64:
 739 003c 00000000 		.word	__stack_chk_guard
 740 0040 00000000 		.word	ProcessImage
 741 0044 00000000 		.word	.LANCHOR7
ARM GAS  C:\Users\alexi\AppData\Local\Temp\cc0Ctyd6.s 			page 14


 742 0048 00000000 		.word	CaptureImage
 743 004c 00000000 		.word	.LANCHOR8
 744              		.cfi_endproc
 745              	.LFE260:
 746              		.size	process_image_start, .-process_image_start
 747              		.section	.text.get_line_position,"ax",%progbits
 748              		.align	1
 749              		.p2align 4,,15
 750              		.global	get_line_position
 751              		.syntax unified
 752              		.thumb
 753              		.thumb_func
 754              		.fpu fpv4-sp-d16
 755              		.type	get_line_position, %function
 756              	get_line_position:
 757              	.LFB262:
 758              		.loc 2 166 0
 759              		.cfi_startproc
 760              		@ args = 0, pretend = 0, frame = 8
 761              		@ frame_needed = 0, uses_anonymous_args = 0
 762 0000 00B5     		push	{lr}
 763              		.cfi_def_cfa_offset 4
 764              		.cfi_offset 14, -4
 765 0002 074B     		ldr	r3, .L70
 766              		.loc 2 167 0
 767 0004 0749     		ldr	r1, .L70+4
 768              		.loc 2 166 0
 769 0006 1A68     		ldr	r2, [r3]
 770              		.loc 2 168 0
 771 0008 0888     		ldrh	r0, [r1]
 772              		.loc 2 166 0
 773 000a 83B0     		sub	sp, sp, #12
 774              		.cfi_def_cfa_offset 16
 775              		.loc 2 166 0
 776 000c 0192     		str	r2, [sp, #4]
 777              		.loc 2 168 0
 778 000e 019A     		ldr	r2, [sp, #4]
 779 0010 1B68     		ldr	r3, [r3]
 780 0012 9A42     		cmp	r2, r3
 781 0014 02D1     		bne	.L69
 782 0016 03B0     		add	sp, sp, #12
 783              		.cfi_remember_state
 784              		.cfi_def_cfa_offset 4
 785              		@ sp needed
 786 0018 5DF804FB 		ldr	pc, [sp], #4
 787              	.L69:
 788              		.cfi_restore_state
 789 001c FFF7FEFF 		bl	__stack_chk_fail
 790              	.LVL66:
 791              	.L71:
 792              		.align	2
 793              	.L70:
 794 0020 00000000 		.word	__stack_chk_guard
 795 0024 00000000 		.word	.LANCHOR3
 796              		.cfi_endproc
 797              	.LFE262:
 798              		.size	get_line_position, .-get_line_position
ARM GAS  C:\Users\alexi\AppData\Local\Temp\cc0Ctyd6.s 			page 15


 799              		.section	.bss.distance_cm,"aw",%nobits
 800              		.align	2
 801              		.set	.LANCHOR4,. + 0
 802              		.type	distance_cm, %object
 803              		.size	distance_cm, 4
 804              	distance_cm:
 805 0000 00000000 		.space	4
 806              		.section	.bss.last_width,"aw",%nobits
 807              		.align	2
 808              		.set	.LANCHOR2,. + 0
 809              		.type	last_width, %object
 810              		.size	last_width, 4
 811              	last_width:
 812 0000 00000000 		.space	4
 813              		.section	.bss.waCaptureImage,"aw",%nobits
 814              		.align	3
 815              		.set	.LANCHOR8,. + 0
 816              		.type	waCaptureImage, %object
 817              		.size	waCaptureImage, 632
 818              	waCaptureImage:
 819 0000 00000000 		.space	632
 819      00000000 
 819      00000000 
 819      00000000 
 819      00000000 
 820              		.section	.bss.waProcessImage,"aw",%nobits
 821              		.align	3
 822              		.set	.LANCHOR7,. + 0
 823              		.type	waProcessImage, %object
 824              		.size	waProcessImage, 1400
 825              	waProcessImage:
 826 0000 00000000 		.space	1400
 826      00000000 
 826      00000000 
 826      00000000 
 826      00000000 
 827              		.section	.data.image_ready_sem,"aw",%progbits
 828              		.align	2
 829              		.set	.LANCHOR1,. + 0
 830              		.type	image_ready_sem, %object
 831              		.size	image_ready_sem, 12
 832              	image_ready_sem:
 833 0000 00000000 		.word	image_ready_sem
 834 0004 00000000 		.word	image_ready_sem
 835 0008 00000000 		.word	0
 836              		.section	.data.line_position,"aw",%progbits
 837              		.align	2
 838              		.set	.LANCHOR3,. + 0
 839              		.type	line_position, %object
 840              		.size	line_position, 4
 841              	line_position:
 842 0000 40010000 		.word	320
 843              		.section	.rodata.__FUNCTION__.11335,"a",%progbits
 844              		.align	2
 845              		.set	.LANCHOR5,. + 0
 846              		.type	__FUNCTION__.11335, %object
 847              		.size	__FUNCTION__.11335, 13
ARM GAS  C:\Users\alexi\AppData\Local\Temp\cc0Ctyd6.s 			page 16


 848              	__FUNCTION__.11335:
 849 0000 43617074 		.ascii	"CaptureImage\000"
 849      75726549 
 849      6D616765 
 849      00
 850              		.section	.rodata.__FUNCTION__.11341,"a",%progbits
 851              		.align	2
 852              		.set	.LANCHOR0,. + 0
 853              		.type	__FUNCTION__.11341, %object
 854              		.size	__FUNCTION__.11341, 13
 855              	__FUNCTION__.11341:
 856 0000 50726F63 		.ascii	"ProcessImage\000"
 856      65737349 
 856      6D616765 
 856      00
 857              		.section	.rodata.__func__.7153,"a",%progbits
 858              		.align	2
 859              		.set	.LANCHOR6,. + 0
 860              		.type	__func__.7153, %object
 861              		.size	__func__.7153, 12
 862              	__func__.7153:
 863 0000 63685379 		.ascii	"chSysUnlock\000"
 863      73556E6C 
 863      6F636B00 
 864              		.section	.rodata.chprintf.constprop.0.str1.4,"aMS",%progbits,1
 865              		.align	2
 866              	.LC0:
 867 0000 256D6964 		.ascii	"%middle=%d and width=%d and distancecm=%f \015 \012"
 867      646C653D 
 867      25642061 
 867      6E642077 
 867      69647468 
 868 002d 00       		.ascii	"\000"
 869              		.text
 870              	.Letext0:
 871              		.file 7 "c:\\users\\alexi\\desktop\\systemes_embarques_et_robotique\\eclipse_e-puck2\\tools\\gcc-a
 872              		.file 8 "c:\\users\\alexi\\desktop\\systemes_embarques_et_robotique\\eclipse_e-puck2\\tools\\gcc-a
 873              		.file 9 "c:\\users\\alexi\\desktop\\systemes_embarques_et_robotique\\eclipse_e-puck2\\tools\\gcc-a
 874              		.file 10 "../../lib/e-puck2_main-processor/ChibiOS//os/rt/ports/ARMCMx/compilers/GCC/chtypes.h"
 875              		.file 11 "../../lib/e-puck2_main-processor/ChibiOS//os/rt/include/chsystypes.h"
 876              		.file 12 "../../lib/e-puck2_main-processor/ChibiOS//os/rt/include/chschd.h"
 877              		.file 13 "../../lib/e-puck2_main-processor/ChibiOS//os/ext/CMSIS/include/core_cm4.h"
 878              		.file 14 "../../lib/e-puck2_main-processor/ChibiOS//os/ext/CMSIS/ST/system_stm32f4xx.h"
 879              		.file 15 "../../lib/e-puck2_main-processor/ChibiOS//os/ext/CMSIS/ST/stm32f407xx.h"
 880              		.file 16 "../../lib/e-puck2_main-processor/ChibiOS//os/rt/ports/ARMCMx/chcore.h"
 881              		.file 17 "../../lib/e-puck2_main-processor/ChibiOS//os/rt/ports/ARMCMx/chcore_v7m.h"
 882              		.file 18 "../../lib/e-puck2_main-processor/ChibiOS//os/rt/include/chdebug.h"
 883              		.file 19 "../../lib/e-puck2_main-processor/ChibiOS//os/rt/include/chtm.h"
 884              		.file 20 "../../lib/e-puck2_main-processor/ChibiOS//os/rt/include/chstats.h"
 885              		.file 21 "../../lib/e-puck2_main-processor/ChibiOS//os/rt/include/chsem.h"
 886              		.file 22 "../../lib/e-puck2_main-processor/ChibiOS//os/rt/include/chmtx.h"
 887              		.file 23 "../../lib/e-puck2_main-processor/ChibiOS//os/rt/include/chevents.h"
 888              		.file 24 "../../lib/e-puck2_main-processor/ChibiOS//os/rt/include/chqueues.h"
 889              		.file 25 "../../lib/e-puck2_main-processor/ChibiOS//os/rt/include/chstreams.h"
 890              		.file 26 "../../lib/e-puck2_main-processor/ChibiOS//os/hal/ports/STM32/STM32F4xx/stm32_dma.h"
 891              		.file 27 "../../lib/e-puck2_main-processor/ChibiOS//os/hal/include/hal_ioblock.h"
 892              		.file 28 "../../lib/e-puck2_main-processor/ChibiOS//os/hal/ports/STM32/LLD/GPIOv2/pal_lld.h"
ARM GAS  C:\Users\alexi\AppData\Local\Temp\cc0Ctyd6.s 			page 17


 893              		.file 29 "../../lib/e-puck2_main-processor/ChibiOS//os/hal/include/adc.h"
 894              		.file 30 "../../lib/e-puck2_main-processor/ChibiOS//os/hal/ports/STM32/STM32F4xx/adc_lld.h"
 895              		.file 31 "../../lib/e-puck2_main-processor/ChibiOS//os/hal/include/can.h"
 896              		.file 32 "../../lib/e-puck2_main-processor/ChibiOS//os/hal/ports/STM32/LLD/can_lld.h"
 897              		.file 33 "../../lib/e-puck2_main-processor/ChibiOS//os/hal/include/dac.h"
 898              		.file 34 "../../lib/e-puck2_main-processor/ChibiOS//os/hal/ports/STM32/LLD/DACv1/dac_lld.h"
 899              		.file 35 "../../lib/e-puck2_main-processor/ChibiOS//os/hal/include/ext.h"
 900              		.file 36 "../../lib/e-puck2_main-processor/ChibiOS//os/hal/ports/STM32/LLD/ext_lld.h"
 901              		.file 37 "../../lib/e-puck2_main-processor/ChibiOS//os/hal/include/gpt.h"
 902              		.file 38 "../../lib/e-puck2_main-processor/ChibiOS//os/hal/ports/STM32/LLD/TIMv1/gpt_lld.h"
 903              		.file 39 "../../lib/e-puck2_main-processor/ChibiOS//os/hal/ports/STM32/LLD/TIMv1/stm32_tim.h"
 904              		.file 40 "../../lib/e-puck2_main-processor/ChibiOS//os/hal/include/i2c.h"
 905              		.file 41 "../../lib/e-puck2_main-processor/ChibiOS//os/hal/ports/STM32/LLD/I2Cv1/i2c_lld.h"
 906              		.file 42 "../../lib/e-puck2_main-processor/ChibiOS//os/hal/include/i2s.h"
 907              		.file 43 "../../lib/e-puck2_main-processor/ChibiOS//os/hal/ports/STM32/LLD/SPIv1/i2s_lld.h"
 908              		.file 44 "../../lib/e-puck2_main-processor/ChibiOS//os/hal/include/pwm.h"
 909              		.file 45 "../../lib/e-puck2_main-processor/ChibiOS//os/hal/ports/STM32/LLD/TIMv1/pwm_lld.h"
 910              		.file 46 "../../lib/e-puck2_main-processor/ChibiOS//os/hal/include/serial.h"
 911              		.file 47 "../../lib/e-puck2_main-processor/ChibiOS//os/hal/ports/STM32/LLD/USARTv1/serial_lld.h"
 912              		.file 48 "../../lib/e-puck2_main-processor/ChibiOS//os/hal/include/sdc.h"
 913              		.file 49 "../../lib/e-puck2_main-processor/ChibiOS//os/hal/ports/STM32/LLD/sdc_lld.h"
 914              		.file 50 "../../lib/e-puck2_main-processor/ChibiOS//os/hal/include/spi.h"
 915              		.file 51 "../../lib/e-puck2_main-processor/ChibiOS//os/hal/ports/STM32/LLD/SPIv1/spi_lld.h"
 916              		.file 52 "../../lib/e-puck2_main-processor/ChibiOS//os/hal/include/usb.h"
 917              		.file 53 "../../lib/e-puck2_main-processor/ChibiOS//os/hal/ports/STM32/LLD/OTGv1/usb_lld.h"
 918              		.file 54 "../../lib/e-puck2_main-processor/ChibiOS//os/hal/ports/STM32/LLD/OTGv1/stm32_otg.h"
 919              		.file 55 "../../lib/e-puck2_main-processor/ChibiOS//os/hal/include/serial_usb.h"
 920              		.file 56 "c:\\users\\alexi\\desktop\\systemes_embarques_et_robotique\\eclipse_e-puck2\\tools\\gcc-
 921              		.file 57 "<built-in>"
 922              		.file 58 "../../lib/e-puck2_main-processor/src/usbcfg.h"
 923              		.file 59 "../../lib/e-puck2_main-processor/ChibiOS_ext/os/hal/include/../ports/STM32/STM32F4xx/dcm
 924              		.file 60 "../../lib/e-puck2_main-processor/src/camera/po8030.h"
 925              		.file 61 "../../lib/e-puck2_main-processor/src/camera/dcmi_camera.h"
 926              		.file 62 "c:\\users\\alexi\\desktop\\systemes_embarques_et_robotique\\eclipse_e-puck2\\tools\\gcc-
 927              		.file 63 "c:\\users\\alexi\\desktop\\systemes_embarques_et_robotique\\eclipse_e-puck2\\tools\\gcc-
 928              		.file 64 "c:\\users\\alexi\\desktop\\systemes_embarques_et_robotique\\eclipse_e-puck2\\tools\\gcc-
 929              		.file 65 "../../lib/e-puck2_main-processor/src/msgbus/messagebus.h"
 930              		.file 66 "c:\\users\\alexi\\desktop\\systemes_embarques_et_robotique\\eclipse_e-puck2\\tools\\gcc-
 931              		.file 67 "c:\\users\\alexi\\desktop\\systemes_embarques_et_robotique\\eclipse_e-puck2\\tools\\gcc-
 932              		.file 68 "../../lib/e-puck2_main-processor/src/parameter/parameter.h"
 933              		.file 69 "./main.h"
 934              		.file 70 "../../lib/e-puck2_main-processor/ChibiOS//os/rt/include/chthreads.h"