ARM GAS  C:\Users\Robin\AppData\Local\Temp\ccLUw5mg.s 			page 1


   1              		.cpu cortex-m4
   2              		.eabi_attribute 27, 1
   3              		.eabi_attribute 28, 1
   4              		.eabi_attribute 20, 1
   5              		.eabi_attribute 21, 1
   6              		.eabi_attribute 23, 3
   7              		.eabi_attribute 24, 1
   8              		.eabi_attribute 25, 1
   9              		.eabi_attribute 26, 1
  10              		.eabi_attribute 30, 2
  11              		.eabi_attribute 34, 1
  12              		.eabi_attribute 18, 4
  13              		.file	"audio_processing.c"
  14              		.text
  15              	.Ltext0:
  16              		.cfi_sections	.debug_frame
  17              		.section	.text.sound_remote,"ax",%progbits
  18              		.align	1
  19              		.p2align 4,,15
  20              		.global	sound_remote
  21              		.syntax unified
  22              		.thumb
  23              		.thumb_func
  24              		.fpu fpv4-sp-d16
  25              		.type	sound_remote, %function
  26              	sound_remote:
  27              	.LFB290:
  28              		.file 1 "audio_processing.c"
  29              		.loc 1 50 0
  30              		.cfi_startproc
  31              		@ args = 0, pretend = 0, frame = 8
  32              		@ frame_needed = 0, uses_anonymous_args = 0
  33              	.LVL0:
  34 0000 10B5     		push	{r4, lr}
  35              		.cfi_def_cfa_offset 8
  36              		.cfi_offset 4, -8
  37              		.cfi_offset 14, -4
  38 0002 2B4C     		ldr	r4, .L27
  39              		.loc 1 51 0
  40 0004 9FED2B7A 		vldr.32	s14, .L27+4
  41              		.loc 1 50 0
  42 0008 2368     		ldr	r3, [r4]
  43 000a 82B0     		sub	sp, sp, #8
  44              		.cfi_def_cfa_offset 16
  45 000c 2830     		adds	r0, r0, #40
  46              	.LVL1:
  47              		.loc 1 50 0
  48 000e 0193     		str	r3, [sp, #4]
  49              	.LVL2:
  50              		.loc 1 52 0
  51 0010 4FF0FF32 		mov	r2, #-1
  52              		.loc 1 50 0
  53 0014 0A23     		movs	r3, #10
  54              	.LVL3:
  55              	.L4:
  56              	.LBB35:
  57              		.loc 1 56 0
ARM GAS  C:\Users\Robin\AppData\Local\Temp\ccLUw5mg.s 			page 2


  58 0016 F0EC017A 		vldmia.32	r0!, {s15}
  59 001a F4EEC77A 		vcmpe.f32	s15, s14
  60 001e F1EE10FA 		vmrs	APSR_nzcv, FPSCR
  61              	.LVL4:
  62              		.loc 1 58 0
  63 0022 C8BF     		it	gt
  64 0024 1AB2     		sxthgt	r2, r3
  65              	.LVL5:
  66 0026 03F10103 		add	r3, r3, #1
  67              	.LVL6:
  68              		.loc 1 57 0
  69 002a C8BF     		it	gt
  70 002c B0EE677A 		vmovgt.f32	s14, s15
  71              	.LVL7:
  72              		.loc 1 55 0
  73 0030 1F2B     		cmp	r3, #31
  74 0032 F0D1     		bne	.L4
  75              	.LBE35:
  76              		.loc 1 63 0
  77 0034 92B2     		uxth	r2, r2
  78 0036 A2F10F03 		sub	r3, r2, #15
  79 003a 022B     		cmp	r3, #2
  80 003c 24D9     		bls	.L23
  81              		.loc 1 68 0
  82 003e A2F11203 		sub	r3, r2, #18
  83 0042 022B     		cmp	r3, #2
  84 0044 11D9     		bls	.L24
  85              		.loc 1 73 0
  86 0046 A2F11603 		sub	r3, r2, #22
  87 004a 022B     		cmp	r3, #2
  88 004c 2CD9     		bls	.L25
  89              		.loc 1 78 0
  90 004e 193A     		subs	r2, r2, #25
  91 0050 022A     		cmp	r2, #2
  92 0052 1CD9     		bls	.L26
  93              		.loc 1 83 0
  94 0054 0020     		movs	r0, #0
  95 0056 FFF7FEFF 		bl	left_motor_set_speed
  96              	.LVL8:
  97              		.loc 1 84 0
  98 005a 019A     		ldr	r2, [sp, #4]
  99 005c 2368     		ldr	r3, [r4]
 100 005e 9A42     		cmp	r2, r3
 101 0060 08BF     		it	eq
 102 0062 0020     		moveq	r0, #0
 103 0064 0BD0     		beq	.L18
 104              	.L19:
 105 0066 FFF7FEFF 		bl	__stack_chk_fail
 106              	.LVL9:
 107              	.L24:
 108              		.loc 1 69 0
 109 006a 1348     		ldr	r0, .L27+8
 110              	.L20:
 111 006c FFF7FEFF 		bl	left_motor_set_speed
 112              	.LVL10:
 113              		.loc 1 70 0
 114 0070 019A     		ldr	r2, [sp, #4]
ARM GAS  C:\Users\Robin\AppData\Local\Temp\ccLUw5mg.s 			page 3


 115 0072 2368     		ldr	r3, [r4]
 116 0074 9A42     		cmp	r2, r3
 117 0076 08BF     		it	eq
 118 0078 4FF41670 		moveq	r0, #600
 119 007c F3D1     		bne	.L19
 120              	.L18:
 121              		.loc 1 87 0
 122 007e 02B0     		add	sp, sp, #8
 123              		.cfi_remember_state
 124              		.cfi_def_cfa_offset 8
 125              		@ sp needed
 126 0080 BDE81040 		pop	{r4, lr}
 127              		.cfi_restore 14
 128              		.cfi_restore 4
 129              		.cfi_def_cfa_offset 0
 130              		.loc 1 84 0
 131 0084 FFF7FEBF 		b	right_motor_set_speed
 132              	.LVL11:
 133              	.L23:
 134              		.cfi_restore_state
 135              		.loc 1 64 0
 136 0088 4FF41670 		mov	r0, #600
 137 008c EEE7     		b	.L20
 138              	.L26:
 139              		.loc 1 79 0
 140 008e 0A48     		ldr	r0, .L27+8
 141              	.L21:
 142 0090 FFF7FEFF 		bl	left_motor_set_speed
 143              	.LVL12:
 144              		.loc 1 80 0
 145 0094 019A     		ldr	r2, [sp, #4]
 146 0096 2368     		ldr	r3, [r4]
 147 0098 9A42     		cmp	r2, r3
 148 009a E4D1     		bne	.L19
 149 009c 0648     		ldr	r0, .L27+8
 150              		.loc 1 87 0
 151 009e 02B0     		add	sp, sp, #8
 152              		.cfi_remember_state
 153              		.cfi_def_cfa_offset 8
 154              		@ sp needed
 155 00a0 BDE81040 		pop	{r4, lr}
 156              		.cfi_restore 14
 157              		.cfi_restore 4
 158              		.cfi_def_cfa_offset 0
 159              		.loc 1 84 0
 160 00a4 FFF7FEBF 		b	right_motor_set_speed
 161              	.LVL13:
 162              	.L25:
 163              		.cfi_restore_state
 164              	.LBB36:
 165              	.LBB37:
 166              		.loc 1 74 0
 167 00a8 4FF41670 		mov	r0, #600
 168 00ac F0E7     		b	.L21
 169              	.L28:
 170 00ae 00BF     		.align	2
 171              	.L27:
ARM GAS  C:\Users\Robin\AppData\Local\Temp\ccLUw5mg.s 			page 4


 172 00b0 00000000 		.word	__stack_chk_guard
 173 00b4 00401C46 		.word	1176256512
 174 00b8 A8FDFFFF 		.word	-600
 175              	.LBE37:
 176              	.LBE36:
 177              		.cfi_endproc
 178              	.LFE290:
 179              		.size	sound_remote, .-sound_remote
 180              		.section	.text.processAudioData,"ax",%progbits
 181              		.align	1
 182              		.p2align 4,,15
 183              		.global	processAudioData
 184              		.syntax unified
 185              		.thumb
 186              		.thumb_func
 187              		.fpu fpv4-sp-d16
 188              		.type	processAudioData, %function
 189              	processAudioData:
 190              	.LFB291:
 191              		.loc 1 98 0
 192              		.cfi_startproc
 193              		@ args = 0, pretend = 0, frame = 8
 194              		@ frame_needed = 0, uses_anonymous_args = 0
 195              	.LVL14:
 196 0000 2DE9F04F 		push	{r4, r5, r6, r7, r8, r9, r10, fp, lr}
 197              		.cfi_def_cfa_offset 36
 198              		.cfi_offset 4, -36
 199              		.cfi_offset 5, -32
 200              		.cfi_offset 6, -28
 201              		.cfi_offset 7, -24
 202              		.cfi_offset 8, -20
 203              		.cfi_offset 9, -16
 204              		.cfi_offset 10, -12
 205              		.cfi_offset 11, -8
 206              		.cfi_offset 14, -4
 207 0004 684E     		ldr	r6, .L46
 208 0006 694F     		ldr	r7, .L46+4
 209 0008 3368     		ldr	r3, [r6]
 210 000a 3A88     		ldrh	r2, [r7]
 211 000c 83B0     		sub	sp, sp, #12
 212              		.cfi_def_cfa_offset 48
 213              		.loc 1 98 0
 214 000e 0193     		str	r3, [sp, #4]
 215              	.LVL15:
 216              	.LBB53:
 217              		.loc 1 112 0
 218 0010 0029     		cmp	r1, #0
 219 0012 00F09380 		beq	.L30
 220 0016 DFF89C91 		ldr	r9, .L46+12
 221 001a DFF8A081 		ldr	r8, .L46+20
 222 001e DFF8A4E1 		ldr	lr, .L46+28
 223 0022 DFF89CC1 		ldr	ip, .L46+24
 224              		.loc 1 121 0
 225 0026 DFED627A 		vldr.32	s15, .L46+8
 226              		.loc 1 112 0
 227 002a 0025     		movs	r5, #0
 228 002c 04E0     		b	.L33
ARM GAS  C:\Users\Robin\AppData\Local\Temp\ccLUw5mg.s 			page 5


 229              	.LVL16:
 230              	.L31:
 231              		.loc 1 112 0 is_stmt 0 discriminator 2
 232 002e 0435     		adds	r5, r5, #4
 233              	.LVL17:
 234 0030 ADB2     		uxth	r5, r5
 235              	.LVL18:
 236 0032 A942     		cmp	r1, r5
 237 0034 40F2B580 		bls	.L44
 238              	.LVL19:
 239              	.L33:
 240              		.loc 1 114 0 is_stmt 1
 241 0038 30F91530 		ldrsh	r3, [r0, r5, lsl #1]
 242 003c 07EE103A 		vmov	s14, r3	@ int
 243 0040 9400     		lsls	r4, r2, #2
 244 0042 B8EEC77A 		vcvt.f32.s32	s14, s14
 245 0046 09EB040A 		add	r10, r9, r4
 246              		.loc 1 115 0
 247 004a 00EB4503 		add	r3, r0, r5, lsl #1
 248              		.loc 1 114 0
 249 004e 8AED007A 		vstr.32	s14, [r10]
 250              		.loc 1 115 0
 251 0052 B3F902A0 		ldrsh	r10, [r3, #2]
 252 0056 07EE10AA 		vmov	s14, r10	@ int
 253 005a B8EEC77A 		vcvt.f32.s32	s14, s14
 254 005e 08EB040A 		add	r10, r8, r4
 255 0062 8AED007A 		vstr.32	s14, [r10]
 256              		.loc 1 116 0
 257 0066 B3F904A0 		ldrsh	r10, [r3, #4]
 258 006a 07EE10AA 		vmov	s14, r10	@ int
 259 006e B8EEC77A 		vcvt.f32.s32	s14, s14
 260 0072 0EEB040A 		add	r10, lr, r4
 261 0076 8AED007A 		vstr.32	s14, [r10]
 262              		.loc 1 117 0
 263 007a B3F90630 		ldrsh	r3, [r3, #6]
 264 007e 07EE103A 		vmov	s14, r3	@ int
 265              		.loc 1 121 0
 266 0082 531C     		adds	r3, r2, #1
 267 0084 9BB2     		uxth	r3, r3
 268              		.loc 1 117 0
 269 0086 B8EEC77A 		vcvt.f32.s32	s14, s14
 270              		.loc 1 126 0
 271 008a 0232     		adds	r2, r2, #2
 272              		.loc 1 121 0
 273 008c 9B00     		lsls	r3, r3, #2
 274              		.loc 1 117 0
 275 008e 6444     		add	r4, r4, ip
 276              		.loc 1 126 0
 277 0090 92B2     		uxth	r2, r2
 278              		.loc 1 117 0
 279 0092 84ED007A 		vstr.32	s14, [r4]
 280              		.loc 1 121 0
 281 0096 09EB030B 		add	fp, r9, r3
 282              		.loc 1 122 0
 283 009a 08EB030A 		add	r10, r8, r3
 284              		.loc 1 123 0
 285 009e 0EEB0304 		add	r4, lr, r3
ARM GAS  C:\Users\Robin\AppData\Local\Temp\ccLUw5mg.s 			page 6


 286              		.loc 1 129 0
 287 00a2 B2F5006F 		cmp	r2, #2048
 288              		.loc 1 124 0
 289 00a6 6344     		add	r3, r3, ip
 290              		.loc 1 121 0
 291 00a8 CBED007A 		vstr.32	s15, [fp]
 292              		.loc 1 122 0
 293 00ac CAED007A 		vstr.32	s15, [r10]
 294              		.loc 1 123 0
 295 00b0 C4ED007A 		vstr.32	s15, [r4]
 296              		.loc 1 124 0
 297 00b4 C3ED007A 		vstr.32	s15, [r3]
 298              		.loc 1 129 0
 299 00b8 B9D3     		bcc	.L31
 300 00ba 3A80     		strh	r2, [r7]	@ movhi
 301              	.LVL20:
 302              	.L32:
 303              	.LBE53:
 304              		.loc 1 141 0
 305 00bc 3D49     		ldr	r1, .L46+12
 306              	.LVL21:
 307              		.loc 1 160 0
 308 00be 3E4C     		ldr	r4, .L46+16
 309              		.loc 1 141 0
 310 00c0 4FF48060 		mov	r0, #1024
 311              	.LVL22:
 312 00c4 FFF7FEFF 		bl	doFFT_optimized
 313              	.LVL23:
 314              		.loc 1 142 0
 315 00c8 3C49     		ldr	r1, .L46+20
 316 00ca 4FF48060 		mov	r0, #1024
 317 00ce FFF7FEFF 		bl	doFFT_optimized
 318              	.LVL24:
 319              		.loc 1 143 0
 320 00d2 3B49     		ldr	r1, .L46+24
 321 00d4 4FF48060 		mov	r0, #1024
 322 00d8 FFF7FEFF 		bl	doFFT_optimized
 323              	.LVL25:
 324              		.loc 1 144 0
 325 00dc 3949     		ldr	r1, .L46+28
 326 00de 4FF48060 		mov	r0, #1024
 327 00e2 FFF7FEFF 		bl	doFFT_optimized
 328              	.LVL26:
 329              		.loc 1 153 0
 330 00e6 4FF48062 		mov	r2, #1024
 331 00ea 3749     		ldr	r1, .L46+32
 332 00ec 3148     		ldr	r0, .L46+12
 333 00ee FFF7FEFF 		bl	arm_cmplx_mag_f32
 334              	.LVL27:
 335              		.loc 1 154 0
 336 00f2 4FF48062 		mov	r2, #1024
 337 00f6 3549     		ldr	r1, .L46+36
 338 00f8 3048     		ldr	r0, .L46+20
 339 00fa FFF7FEFF 		bl	arm_cmplx_mag_f32
 340              	.LVL28:
 341              		.loc 1 155 0
 342 00fe 4FF48062 		mov	r2, #1024
ARM GAS  C:\Users\Robin\AppData\Local\Temp\ccLUw5mg.s 			page 7


 343 0102 3349     		ldr	r1, .L46+40
 344 0104 2E48     		ldr	r0, .L46+24
 345 0106 FFF7FEFF 		bl	arm_cmplx_mag_f32
 346              	.LVL29:
 347              		.loc 1 156 0
 348 010a 4FF48062 		mov	r2, #1024
 349 010e 3149     		ldr	r1, .L46+44
 350 0110 2C48     		ldr	r0, .L46+28
 351 0112 FFF7FEFF 		bl	arm_cmplx_mag_f32
 352              	.LVL30:
 353              		.loc 1 160 0
 354 0116 2378     		ldrb	r3, [r4]	@ zero_extendqisi2
 355 0118 082B     		cmp	r3, #8
 356 011a 19D8     		bhi	.L35
 357 011c 0133     		adds	r3, r3, #1
 358 011e DBB2     		uxtb	r3, r3
 359              	.L36:
 360              		.loc 1 168 0
 361 0120 0199     		ldr	r1, [sp, #4]
 362 0122 3268     		ldr	r2, [r6]
 363              		.loc 1 166 0
 364 0124 2370     		strb	r3, [r4]
 365              		.loc 1 168 0
 366 0126 9142     		cmp	r1, r2
 367              		.loc 1 165 0
 368 0128 4FF00003 		mov	r3, #0
 369 012c 3B80     		strh	r3, [r7]	@ movhi
 370              		.loc 1 168 0
 371 012e 36D1     		bne	.L43
 372 0130 2648     		ldr	r0, .L46+36
 373              		.loc 1 170 0
 374 0132 03B0     		add	sp, sp, #12
 375              		.cfi_remember_state
 376              		.cfi_def_cfa_offset 36
 377              		@ sp needed
 378 0134 BDE8F04F 		pop	{r4, r5, r6, r7, r8, r9, r10, fp, lr}
 379              		.cfi_restore 14
 380              		.cfi_restore 11
 381              		.cfi_restore 10
 382              		.cfi_restore 9
 383              		.cfi_restore 8
 384              		.cfi_restore 7
 385              		.cfi_restore 6
 386              		.cfi_restore 5
 387              		.cfi_restore 4
 388              		.cfi_def_cfa_offset 0
 389              		.loc 1 168 0
 390 0138 FFF7FEBF 		b	sound_remote
 391              	.LVL31:
 392              	.L30:
 393              		.cfi_restore_state
 394              		.loc 1 134 0
 395 013c B2F5006F 		cmp	r2, #2048
 396 0140 BCD2     		bcs	.L32
 397              	.LVL32:
 398              	.L29:
 399              		.loc 1 170 0
ARM GAS  C:\Users\Robin\AppData\Local\Temp\ccLUw5mg.s 			page 8


 400 0142 019A     		ldr	r2, [sp, #4]
 401 0144 3368     		ldr	r3, [r6]
 402 0146 9A42     		cmp	r2, r3
 403 0148 29D1     		bne	.L43
 404 014a 03B0     		add	sp, sp, #12
 405              		.cfi_remember_state
 406              		.cfi_def_cfa_offset 36
 407              		@ sp needed
 408 014c BDE8F08F 		pop	{r4, r5, r6, r7, r8, r9, r10, fp, pc}
 409              	.LVL33:
 410              	.L35:
 411              		.cfi_restore_state
 412              	.LBB54:
 413              	.LBB55:
 414              	.LBB56:
 415              	.LBB57:
 416              	.LBB58:
 417              	.LBB59:
 418              	.LBB60:
 419              		.file 2 "../../lib/e-puck2_main-processor/ChibiOS//os/ext/CMSIS/include/core_cmFunc.h"
 420              		.loc 2 546 0
 421 0150 2023     		movs	r3, #32
 422              		.syntax unified
 423              	@ 546 "../../lib/e-puck2_main-processor/ChibiOS//os/ext/CMSIS/include/core_cmFunc.h" 1
 424 0152 83F31188 		MSR basepri, r3
 425              	@ 0 "" 2
 426              	.LVL34:
 427              		.thumb
 428              		.syntax unified
 429              	.LBE60:
 430              	.LBE59:
 431              	.LBE58:
 432              		.file 3 "../../lib/e-puck2_main-processor/ChibiOS//os/rt/include/chsys.h"
 433              		.loc 3 349 0
 434 0156 FFF7FEFF 		bl	_stats_start_measure_crit_thd
 435              	.LVL35:
 436              		.loc 3 350 0
 437 015a FFF7FEFF 		bl	_dbg_check_lock
 438              	.LVL36:
 439              	.LBE57:
 440              	.LBE56:
 441              	.LBB61:
 442              	.LBB62:
 443              		.file 4 "../../lib/e-puck2_main-processor/ChibiOS//os/rt/include/chbsem.h"
 444              		.loc 4 268 0
 445 015e FFF7FEFF 		bl	chDbgCheckClassI
 446              	.LVL37:
 447              		.loc 4 270 0
 448 0162 1D48     		ldr	r0, .L46+48
 449 0164 8368     		ldr	r3, [r0, #8]
 450 0166 002B     		cmp	r3, #0
 451 0168 16DD     		ble	.L45
 452              	.L37:
 453              	.LVL38:
 454              	.LBE62:
 455              	.LBE61:
 456              		.loc 4 286 0
ARM GAS  C:\Users\Robin\AppData\Local\Temp\ccLUw5mg.s 			page 9


 457 016a FFF7FEFF 		bl	chSchRescheduleS
 458              	.LVL39:
 459              	.LBB64:
 460              	.LBB65:
 461              		.loc 3 360 0
 462 016e FFF7FEFF 		bl	_dbg_check_unlock
 463              	.LVL40:
 464              		.loc 3 361 0
 465 0172 FFF7FEFF 		bl	_stats_stop_measure_crit_thd
 466              	.LVL41:
 467              		.loc 3 367 0
 468 0176 194B     		ldr	r3, .L46+52
 469 0178 1A68     		ldr	r2, [r3]
 470 017a 9A42     		cmp	r2, r3
 471 017c 07D0     		beq	.L38
 472 017e 9969     		ldr	r1, [r3, #24]
 473 0180 9368     		ldr	r3, [r2, #8]
 474 0182 8A68     		ldr	r2, [r1, #8]
 475 0184 9A42     		cmp	r2, r3
 476 0186 02D2     		bcs	.L38
 477 0188 1548     		ldr	r0, .L46+56
 478 018a FFF7FEFF 		bl	chSysHalt
 479              	.LVL42:
 480              	.L38:
 481              	.LBB66:
 482              	.LBB67:
 483              	.LBB68:
 484              		.loc 2 546 0
 485 018e 0023     		movs	r3, #0
 486              		.syntax unified
 487              	@ 546 "../../lib/e-puck2_main-processor/ChibiOS//os/ext/CMSIS/include/core_cmFunc.h" 1
 488 0190 83F31188 		MSR basepri, r3
 489              	@ 0 "" 2
 490              	.LVL43:
 491              		.thumb
 492              		.syntax unified
 493 0194 0123     		movs	r3, #1
 494 0196 C3E7     		b	.L36
 495              	.LVL44:
 496              	.L45:
 497              	.LBE68:
 498              	.LBE67:
 499              	.LBE66:
 500              	.LBE65:
 501              	.LBE64:
 502              	.LBB69:
 503              	.LBB63:
 504              		.loc 4 271 0
 505 0198 FFF7FEFF 		bl	chSemSignalI
 506              	.LVL45:
 507 019c E5E7     		b	.L37
 508              	.LVL46:
 509              	.L43:
 510              	.LBE63:
 511              	.LBE69:
 512              	.LBE55:
 513              	.LBE54:
ARM GAS  C:\Users\Robin\AppData\Local\Temp\ccLUw5mg.s 			page 10


 514              		.loc 1 170 0
 515 019e FFF7FEFF 		bl	__stack_chk_fail
 516              	.LVL47:
 517              	.L44:
 518 01a2 3A80     		strh	r2, [r7]	@ movhi
 519 01a4 CDE7     		b	.L29
 520              	.L47:
 521 01a6 00BF     		.align	2
 522              	.L46:
 523 01a8 00000000 		.word	__stack_chk_guard
 524 01ac 00000000 		.word	.LANCHOR0
 525 01b0 00000000 		.word	0
 526 01b4 00000000 		.word	micRight_cmplx_input
 527 01b8 00000000 		.word	.LANCHOR1
 528 01bc 00000000 		.word	micLeft_cmplx_input
 529 01c0 00000000 		.word	micFront_cmplx_input
 530 01c4 00000000 		.word	micBack_cmplx_input
 531 01c8 00000000 		.word	micRight_output
 532 01cc 00000000 		.word	micLeft_output
 533 01d0 00000000 		.word	micFront_output
 534 01d4 00000000 		.word	micBack_output
 535 01d8 00000000 		.word	.LANCHOR2
 536 01dc 00000000 		.word	ch
 537 01e0 00000000 		.word	.LANCHOR3
 538              		.cfi_endproc
 539              	.LFE291:
 540              		.size	processAudioData, .-processAudioData
 541              		.section	.text.wait_send_to_computer,"ax",%progbits
 542              		.align	1
 543              		.p2align 4,,15
 544              		.global	wait_send_to_computer
 545              		.syntax unified
 546              		.thumb
 547              		.thumb_func
 548              		.fpu fpv4-sp-d16
 549              		.type	wait_send_to_computer, %function
 550              	wait_send_to_computer:
 551              	.LFB292:
 552              		.loc 1 172 0
 553              		.cfi_startproc
 554              		@ args = 0, pretend = 0, frame = 8
 555              		@ frame_needed = 0, uses_anonymous_args = 0
 556 0000 00B5     		push	{lr}
 557              		.cfi_def_cfa_offset 4
 558              		.cfi_offset 14, -4
 559 0002 084B     		ldr	r3, .L53
 560 0004 83B0     		sub	sp, sp, #12
 561              		.cfi_def_cfa_offset 16
 562              		.loc 1 172 0
 563 0006 1A68     		ldr	r2, [r3]
 564 0008 0192     		str	r2, [sp, #4]
 565              	.LVL48:
 566              	.LBB70:
 567              	.LBB71:
 568              		.loc 4 143 0
 569 000a 019A     		ldr	r2, [sp, #4]
 570 000c 1B68     		ldr	r3, [r3]
ARM GAS  C:\Users\Robin\AppData\Local\Temp\ccLUw5mg.s 			page 11


 571 000e 9A42     		cmp	r2, r3
 572 0010 05D1     		bne	.L52
 573 0012 0548     		ldr	r0, .L53+4
 574              	.LBE71:
 575              	.LBE70:
 576              		.loc 1 174 0
 577 0014 03B0     		add	sp, sp, #12
 578              		.cfi_remember_state
 579              		.cfi_def_cfa_offset 4
 580              		@ sp needed
 581 0016 5DF804EB 		ldr	lr, [sp], #4
 582              		.cfi_restore 14
 583              		.cfi_def_cfa_offset 0
 584              	.LBB73:
 585              	.LBB72:
 586              		.loc 4 143 0
 587 001a FFF7FEBF 		b	chSemWait
 588              	.LVL49:
 589              	.L52:
 590              		.cfi_restore_state
 591 001e FFF7FEFF 		bl	__stack_chk_fail
 592              	.LVL50:
 593              	.L54:
 594 0022 00BF     		.align	2
 595              	.L53:
 596 0024 00000000 		.word	__stack_chk_guard
 597 0028 00000000 		.word	.LANCHOR2
 598              	.LBE72:
 599              	.LBE73:
 600              		.cfi_endproc
 601              	.LFE292:
 602              		.size	wait_send_to_computer, .-wait_send_to_computer
 603              		.section	.text.get_audio_buffer_ptr,"ax",%progbits
 604              		.align	1
 605              		.p2align 4,,15
 606              		.global	get_audio_buffer_ptr
 607              		.syntax unified
 608              		.thumb
 609              		.thumb_func
 610              		.fpu fpv4-sp-d16
 611              		.type	get_audio_buffer_ptr, %function
 612              	get_audio_buffer_ptr:
 613              	.LFB293:
 614              		.loc 1 176 0
 615              		.cfi_startproc
 616              		@ args = 0, pretend = 0, frame = 8
 617              		@ frame_needed = 0, uses_anonymous_args = 0
 618              	.LVL51:
 619 0000 00B5     		push	{lr}
 620              		.cfi_def_cfa_offset 4
 621              		.cfi_offset 14, -4
 622 0002 164B     		ldr	r3, .L68
 623 0004 83B0     		sub	sp, sp, #12
 624              		.cfi_def_cfa_offset 16
 625              		.loc 1 176 0
 626 0006 1A68     		ldr	r2, [r3]
 627 0008 0192     		str	r2, [sp, #4]
ARM GAS  C:\Users\Robin\AppData\Local\Temp\ccLUw5mg.s 			page 12


 628              		.loc 1 177 0
 629 000a 88B1     		cbz	r0, .L58
 630              		.loc 1 180 0
 631 000c 0128     		cmp	r0, #1
 632 000e 17D0     		beq	.L59
 633              		.loc 1 183 0
 634 0010 0228     		cmp	r0, #2
 635 0012 19D0     		beq	.L60
 636              		.loc 1 186 0
 637 0014 0328     		cmp	r0, #3
 638 0016 15D0     		beq	.L61
 639              		.loc 1 189 0
 640 0018 0428     		cmp	r0, #4
 641 001a 17D0     		beq	.L62
 642              		.loc 1 192 0
 643 001c 0528     		cmp	r0, #5
 644 001e 17D0     		beq	.L63
 645              		.loc 1 195 0
 646 0020 0628     		cmp	r0, #6
 647 0022 17D0     		beq	.L64
 648              		.loc 1 202 0
 649 0024 0E4A     		ldr	r2, .L68+4
 650              		.loc 1 198 0
 651 0026 0728     		cmp	r0, #7
 652              		.loc 1 202 0
 653 0028 0CBF     		ite	eq
 654 002a 1046     		moveq	r0, r2
 655              	.LVL52:
 656 002c 0020     		movne	r0, #0
 657 002e 00E0     		b	.L55
 658              	.LVL53:
 659              	.L58:
 660              		.loc 1 178 0
 661 0030 0C48     		ldr	r0, .L68+8
 662              	.LVL54:
 663              	.L55:
 664              		.loc 1 204 0
 665 0032 019A     		ldr	r2, [sp, #4]
 666 0034 1B68     		ldr	r3, [r3]
 667 0036 9A42     		cmp	r2, r3
 668 0038 0ED1     		bne	.L67
 669 003a 03B0     		add	sp, sp, #12
 670              		.cfi_remember_state
 671              		.cfi_def_cfa_offset 4
 672              		@ sp needed
 673 003c 5DF804FB 		ldr	pc, [sp], #4
 674              	.LVL55:
 675              	.L59:
 676              		.cfi_restore_state
 677              		.loc 1 181 0
 678 0040 0948     		ldr	r0, .L68+12
 679              	.LVL56:
 680 0042 F6E7     		b	.L55
 681              	.LVL57:
 682              	.L61:
 683              		.loc 1 187 0
 684 0044 0948     		ldr	r0, .L68+16
ARM GAS  C:\Users\Robin\AppData\Local\Temp\ccLUw5mg.s 			page 13


 685              	.LVL58:
 686 0046 F4E7     		b	.L55
 687              	.LVL59:
 688              	.L60:
 689              		.loc 1 184 0
 690 0048 0948     		ldr	r0, .L68+20
 691              	.LVL60:
 692 004a F2E7     		b	.L55
 693              	.LVL61:
 694              	.L62:
 695              		.loc 1 190 0
 696 004c 0948     		ldr	r0, .L68+24
 697              	.LVL62:
 698 004e F0E7     		b	.L55
 699              	.LVL63:
 700              	.L63:
 701              		.loc 1 193 0
 702 0050 0948     		ldr	r0, .L68+28
 703              	.LVL64:
 704 0052 EEE7     		b	.L55
 705              	.LVL65:
 706              	.L64:
 707              		.loc 1 196 0
 708 0054 0948     		ldr	r0, .L68+32
 709              	.LVL66:
 710 0056 ECE7     		b	.L55
 711              	.L67:
 712              		.loc 1 204 0
 713 0058 FFF7FEFF 		bl	__stack_chk_fail
 714              	.LVL67:
 715              	.L69:
 716              		.align	2
 717              	.L68:
 718 005c 00000000 		.word	__stack_chk_guard
 719 0060 00000000 		.word	micBack_output
 720 0064 00000000 		.word	micLeft_cmplx_input
 721 0068 00000000 		.word	micRight_cmplx_input
 722 006c 00000000 		.word	micBack_cmplx_input
 723 0070 00000000 		.word	micFront_cmplx_input
 724 0074 00000000 		.word	micLeft_output
 725 0078 00000000 		.word	micRight_output
 726 007c 00000000 		.word	micFront_output
 727              		.cfi_endproc
 728              	.LFE293:
 729              		.size	get_audio_buffer_ptr, .-get_audio_buffer_ptr
 730              		.section	.bss.micBack_cmplx_input,"aw",%nobits
 731              		.align	2
 732              		.type	micBack_cmplx_input, %object
 733              		.size	micBack_cmplx_input, 8192
 734              	micBack_cmplx_input:
 735 0000 00000000 		.space	8192
 735      00000000 
 735      00000000 
 735      00000000 
 735      00000000 
 736              		.section	.bss.micBack_output,"aw",%nobits
 737              		.align	2
ARM GAS  C:\Users\Robin\AppData\Local\Temp\ccLUw5mg.s 			page 14


 738              		.type	micBack_output, %object
 739              		.size	micBack_output, 4096
 740              	micBack_output:
 741 0000 00000000 		.space	4096
 741      00000000 
 741      00000000 
 741      00000000 
 741      00000000 
 742              		.section	.bss.micFront_cmplx_input,"aw",%nobits
 743              		.align	2
 744              		.type	micFront_cmplx_input, %object
 745              		.size	micFront_cmplx_input, 8192
 746              	micFront_cmplx_input:
 747 0000 00000000 		.space	8192
 747      00000000 
 747      00000000 
 747      00000000 
 747      00000000 
 748              		.section	.bss.micFront_output,"aw",%nobits
 749              		.align	2
 750              		.type	micFront_output, %object
 751              		.size	micFront_output, 4096
 752              	micFront_output:
 753 0000 00000000 		.space	4096
 753      00000000 
 753      00000000 
 753      00000000 
 753      00000000 
 754              		.section	.bss.micLeft_cmplx_input,"aw",%nobits
 755              		.align	2
 756              		.type	micLeft_cmplx_input, %object
 757              		.size	micLeft_cmplx_input, 8192
 758              	micLeft_cmplx_input:
 759 0000 00000000 		.space	8192
 759      00000000 
 759      00000000 
 759      00000000 
 759      00000000 
 760              		.section	.bss.micLeft_output,"aw",%nobits
 761              		.align	2
 762              		.type	micLeft_output, %object
 763              		.size	micLeft_output, 4096
 764              	micLeft_output:
 765 0000 00000000 		.space	4096
 765      00000000 
 765      00000000 
 765      00000000 
 765      00000000 
 766              		.section	.bss.micRight_cmplx_input,"aw",%nobits
 767              		.align	2
 768              		.type	micRight_cmplx_input, %object
 769              		.size	micRight_cmplx_input, 8192
 770              	micRight_cmplx_input:
 771 0000 00000000 		.space	8192
 771      00000000 
 771      00000000 
 771      00000000 
ARM GAS  C:\Users\Robin\AppData\Local\Temp\ccLUw5mg.s 			page 15


 771      00000000 
 772              		.section	.bss.micRight_output,"aw",%nobits
 773              		.align	2
 774              		.type	micRight_output, %object
 775              		.size	micRight_output, 4096
 776              	micRight_output:
 777 0000 00000000 		.space	4096
 777      00000000 
 777      00000000 
 777      00000000 
 777      00000000 
 778              		.section	.bss.mustSend.14173,"aw",%nobits
 779              		.set	.LANCHOR1,. + 0
 780              		.type	mustSend.14173, %object
 781              		.size	mustSend.14173, 1
 782              	mustSend.14173:
 783 0000 00       		.space	1
 784              		.section	.bss.nb_samples.14172,"aw",%nobits
 785              		.align	1
 786              		.set	.LANCHOR0,. + 0
 787              		.type	nb_samples.14172, %object
 788              		.size	nb_samples.14172, 2
 789              	nb_samples.14172:
 790 0000 0000     		.space	2
 791              		.section	.data.sendToComputer_sem,"aw",%progbits
 792              		.align	2
 793              		.set	.LANCHOR2,. + 0
 794              		.type	sendToComputer_sem, %object
 795              		.size	sendToComputer_sem, 12
 796              	sendToComputer_sem:
 797 0000 00000000 		.word	sendToComputer_sem
 798 0004 00000000 		.word	sendToComputer_sem
 799 0008 00000000 		.word	0
 800              		.section	.rodata.__func__.7153,"a",%progbits
 801              		.align	2
 802              		.set	.LANCHOR3,. + 0
 803              		.type	__func__.7153, %object
 804              		.size	__func__.7153, 12
 805              	__func__.7153:
 806 0000 63685379 		.ascii	"chSysUnlock\000"
 806      73556E6C 
 806      6F636B00 
 807              		.text
 808              	.Letext0:
 809              		.file 5 "c:\\users\\robin\\desktop\\systemes_embarques_et_robotique\\eclipse_e-puck2_win32_29_jan_
 810              		.file 6 "c:\\users\\robin\\desktop\\systemes_embarques_et_robotique\\eclipse_e-puck2_win32_29_jan_
 811              		.file 7 "c:\\users\\robin\\desktop\\systemes_embarques_et_robotique\\eclipse_e-puck2_win32_29_jan_
 812              		.file 8 "../../lib/e-puck2_main-processor/ChibiOS//os/rt/ports/ARMCMx/compilers/GCC/chtypes.h"
 813              		.file 9 "../../lib/e-puck2_main-processor/ChibiOS//os/rt/include/chsystypes.h"
 814              		.file 10 "../../lib/e-puck2_main-processor/ChibiOS//os/rt/include/chschd.h"
 815              		.file 11 "../../lib/e-puck2_main-processor/ChibiOS//os/ext/CMSIS/include/core_cm4.h"
 816              		.file 12 "../../lib/e-puck2_main-processor/ChibiOS//os/ext/CMSIS/ST/system_stm32f4xx.h"
 817              		.file 13 "../../lib/e-puck2_main-processor/ChibiOS//os/ext/CMSIS/ST/stm32f407xx.h"
 818              		.file 14 "../../lib/e-puck2_main-processor/ChibiOS//os/rt/ports/ARMCMx/chcore.h"
 819              		.file 15 "../../lib/e-puck2_main-processor/ChibiOS//os/rt/ports/ARMCMx/chcore_v7m.h"
 820              		.file 16 "../../lib/e-puck2_main-processor/ChibiOS//os/rt/include/chdebug.h"
 821              		.file 17 "../../lib/e-puck2_main-processor/ChibiOS//os/rt/include/chtm.h"
ARM GAS  C:\Users\Robin\AppData\Local\Temp\ccLUw5mg.s 			page 16


 822              		.file 18 "../../lib/e-puck2_main-processor/ChibiOS//os/rt/include/chstats.h"
 823              		.file 19 "../../lib/e-puck2_main-processor/ChibiOS//os/rt/include/chsem.h"
 824              		.file 20 "../../lib/e-puck2_main-processor/ChibiOS//os/rt/include/chmtx.h"
 825              		.file 21 "../../lib/e-puck2_main-processor/ChibiOS//os/rt/include/chregistry.h"
 826              		.file 22 "../../lib/e-puck2_main-processor/ChibiOS//os/rt/include/chevents.h"
 827              		.file 23 "../../lib/e-puck2_main-processor/ChibiOS//os/rt/include/chqueues.h"
 828              		.file 24 "../../lib/e-puck2_main-processor/ChibiOS//os/hal/ports/STM32/STM32F4xx/stm32_dma.h"
 829              		.file 25 "../../lib/e-puck2_main-processor/ChibiOS//os/hal/include/hal_ioblock.h"
 830              		.file 26 "../../lib/e-puck2_main-processor/ChibiOS//os/hal/ports/STM32/LLD/GPIOv2/pal_lld.h"
 831              		.file 27 "../../lib/e-puck2_main-processor/ChibiOS//os/hal/include/adc.h"
 832              		.file 28 "../../lib/e-puck2_main-processor/ChibiOS//os/hal/ports/STM32/STM32F4xx/adc_lld.h"
 833              		.file 29 "../../lib/e-puck2_main-processor/ChibiOS//os/hal/include/can.h"
 834              		.file 30 "../../lib/e-puck2_main-processor/ChibiOS//os/hal/ports/STM32/LLD/can_lld.h"
 835              		.file 31 "../../lib/e-puck2_main-processor/ChibiOS//os/hal/include/dac.h"
 836              		.file 32 "../../lib/e-puck2_main-processor/ChibiOS//os/hal/ports/STM32/LLD/DACv1/dac_lld.h"
 837              		.file 33 "../../lib/e-puck2_main-processor/ChibiOS//os/hal/include/ext.h"
 838              		.file 34 "../../lib/e-puck2_main-processor/ChibiOS//os/hal/ports/STM32/LLD/ext_lld.h"
 839              		.file 35 "../../lib/e-puck2_main-processor/ChibiOS//os/hal/include/gpt.h"
 840              		.file 36 "../../lib/e-puck2_main-processor/ChibiOS//os/hal/ports/STM32/LLD/TIMv1/gpt_lld.h"
 841              		.file 37 "../../lib/e-puck2_main-processor/ChibiOS//os/hal/ports/STM32/LLD/TIMv1/stm32_tim.h"
 842              		.file 38 "../../lib/e-puck2_main-processor/ChibiOS//os/hal/include/i2c.h"
 843              		.file 39 "../../lib/e-puck2_main-processor/ChibiOS//os/hal/ports/STM32/LLD/I2Cv1/i2c_lld.h"
 844              		.file 40 "../../lib/e-puck2_main-processor/ChibiOS//os/hal/include/i2s.h"
 845              		.file 41 "../../lib/e-puck2_main-processor/ChibiOS//os/hal/ports/STM32/LLD/SPIv1/i2s_lld.h"
 846              		.file 42 "../../lib/e-puck2_main-processor/ChibiOS//os/hal/include/pwm.h"
 847              		.file 43 "../../lib/e-puck2_main-processor/ChibiOS//os/hal/ports/STM32/LLD/TIMv1/pwm_lld.h"
 848              		.file 44 "../../lib/e-puck2_main-processor/ChibiOS//os/hal/include/serial.h"
 849              		.file 45 "../../lib/e-puck2_main-processor/ChibiOS//os/hal/ports/STM32/LLD/USARTv1/serial_lld.h"
 850              		.file 46 "../../lib/e-puck2_main-processor/ChibiOS//os/hal/include/sdc.h"
 851              		.file 47 "../../lib/e-puck2_main-processor/ChibiOS//os/hal/ports/STM32/LLD/sdc_lld.h"
 852              		.file 48 "../../lib/e-puck2_main-processor/ChibiOS//os/hal/include/spi.h"
 853              		.file 49 "../../lib/e-puck2_main-processor/ChibiOS//os/hal/ports/STM32/LLD/SPIv1/spi_lld.h"
 854              		.file 50 "../../lib/e-puck2_main-processor/ChibiOS//os/hal/include/usb.h"
 855              		.file 51 "../../lib/e-puck2_main-processor/ChibiOS//os/hal/ports/STM32/LLD/OTGv1/usb_lld.h"
 856              		.file 52 "../../lib/e-puck2_main-processor/ChibiOS//os/hal/ports/STM32/LLD/OTGv1/stm32_otg.h"
 857              		.file 53 "../../lib/e-puck2_main-processor/ChibiOS//os/hal/include/serial_usb.h"
 858              		.file 54 "../../lib/e-puck2_main-processor/ChibiOS_ext/os/hal/include/../ports/STM32/STM32F4xx/dcm
 859              		.file 55 "c:\\users\\robin\\desktop\\systemes_embarques_et_robotique\\eclipse_e-puck2_win32_29_jan
 860              		.file 56 "c:\\users\\robin\\desktop\\systemes_embarques_et_robotique\\eclipse_e-puck2_win32_29_jan
 861              		.file 57 "c:\\users\\robin\\desktop\\systemes_embarques_et_robotique\\eclipse_e-puck2_win32_29_jan
 862              		.file 58 "../../lib/e-puck2_main-processor/src/msgbus/messagebus.h"
 863              		.file 59 "c:\\users\\robin\\desktop\\systemes_embarques_et_robotique\\eclipse_e-puck2_win32_29_jan
 864              		.file 60 "c:\\users\\robin\\desktop\\systemes_embarques_et_robotique\\eclipse_e-puck2_win32_29_jan
 865              		.file 61 "../../lib/e-puck2_main-processor/src/parameter/parameter.h"
 866              		.file 62 "./main.h"
 867              		.file 63 "../../lib/e-puck2_main-processor/src/usbcfg.h"
 868              		.file 64 "./audio_processing.h"
 869              		.file 65 "c:\\users\\robin\\desktop\\systemes_embarques_et_robotique\\eclipse_e-puck2_win32_29_jan
 870              		.file 66 "./fft.h"
 871              		.file 67 "../../lib/e-puck2_main-processor/ChibiOS//os/ext/CMSIS/include/arm_math.h"
 872              		.file 68 "../../lib/e-puck2_main-processor/src/motors.h"