ARM GAS  C:\Users\Robin\AppData\Local\Temp\ccENvndH.s 			page 1


   1              		.cpu cortex-m4
   2              		.eabi_attribute 27, 1
   3              		.eabi_attribute 28, 1
   4              		.eabi_attribute 20, 1
   5              		.eabi_attribute 21, 1
   6              		.eabi_attribute 23, 3
   7              		.eabi_attribute 24, 1
   8              		.eabi_attribute 25, 1
   9              		.eabi_attribute 26, 1
  10              		.eabi_attribute 30, 2
  11              		.eabi_attribute 34, 1
  12              		.eabi_attribute 18, 4
  13              		.file	"main.c"
  14              		.text
  15              	.Ltext0:
  16              		.cfi_sections	.debug_frame
  17              		.section	.text.startup.main,"ax",%progbits
  18              		.align	1
  19              		.p2align 4,,15
  20              		.global	main
  21              		.syntax unified
  22              		.thumb
  23              		.thumb_func
  24              		.fpu fpv4-sp-d16
  25              		.type	main, %function
  26              	main:
  27              	.LFB295:
  28              		.file 1 "main.c"
  29              		.loc 1 54 0
  30              		.cfi_startproc
  31              		@ Volatile: function does not return.
  32              		@ args = 0, pretend = 0, frame = 8
  33              		@ frame_needed = 0, uses_anonymous_args = 0
  34 0000 00B5     		push	{lr}
  35              		.cfi_def_cfa_offset 4
  36              		.cfi_offset 14, -4
  37 0002 184B     		ldr	r3, .L6
  38              		.loc 1 89 0
  39 0004 184C     		ldr	r4, .L6+4
  40              		.loc 1 54 0
  41 0006 1B68     		ldr	r3, [r3]
  42 0008 83B0     		sub	sp, sp, #12
  43              		.cfi_def_cfa_offset 16
  44              		.loc 1 54 0
  45 000a 0193     		str	r3, [sp, #4]
  46              		.loc 1 56 0
  47 000c FFF7FEFF 		bl	halInit
  48              	.LVL0:
  49              		.loc 1 57 0
  50 0010 FFF7FEFF 		bl	chSysInit
  51              	.LVL1:
  52              		.loc 1 58 0
  53 0014 FFF7FEFF 		bl	mpu_init
  54              	.LVL2:
  55              	.LBB8:
  56              	.LBB9:
  57              		.loc 1 34 0
ARM GAS  C:\Users\Robin\AppData\Local\Temp\ccENvndH.s 			page 2


  58 0018 1448     		ldr	r0, .L6+8
  59 001a 1549     		ldr	r1, .L6+12
  60              	.LBE9:
  61              	.LBE8:
  62              		.loc 1 90 0
  63 001c 0546     		mov	r5, r0
  64              	.LBB11:
  65              	.LBB10:
  66              		.loc 1 34 0
  67 001e FFF7FEFF 		bl	sdStart
  68              	.LVL3:
  69              	.LBE10:
  70              	.LBE11:
  71              		.loc 1 63 0
  72 0022 FFF7FEFF 		bl	usb_start
  73              	.LVL4:
  74              	.LBB12:
  75              	.LBB13:
  76              		.loc 1 48 0
  77 0026 1349     		ldr	r1, .L6+16
  78 0028 1348     		ldr	r0, .L6+20
  79 002a FFF7FEFF 		bl	gptStart
  80              	.LVL5:
  81              		.loc 1 50 0
  82 002e 1248     		ldr	r0, .L6+20
  83 0030 4FF6FF71 		movw	r1, #65535
  84 0034 FFF7FEFF 		bl	gptStartContinuous
  85              	.LVL6:
  86              	.LBE13:
  87              	.LBE12:
  88              		.loc 1 67 0
  89 0038 FFF7FEFF 		bl	motors_init
  90              	.LVL7:
  91              		.loc 1 79 0
  92 003c 0F48     		ldr	r0, .L6+24
  93 003e FFF7FEFF 		bl	mic_start
  94              	.LVL8:
  95              	.L2:
  96              		.loc 1 86 0 discriminator 1
  97 0042 FFF7FEFF 		bl	wait_send_to_computer
  98              	.LVL9:
  99              		.loc 1 89 0 discriminator 1
 100 0046 0420     		movs	r0, #4
 101 0048 FFF7FEFF 		bl	get_audio_buffer_ptr
 102              	.LVL10:
 103 004c 2146     		mov	r1, r4
 104 004e 4FF48062 		mov	r2, #1024
 105 0052 FFF7FEFF 		bl	arm_copy_f32
 106              	.LVL11:
 107              		.loc 1 90 0 discriminator 1
 108 0056 4FF48062 		mov	r2, #1024
 109 005a 2146     		mov	r1, r4
 110 005c 2846     		mov	r0, r5
 111 005e FFF7FEFF 		bl	SendFloatToComputer
 112              	.LVL12:
 113 0062 EEE7     		b	.L2
 114              	.L7:
ARM GAS  C:\Users\Robin\AppData\Local\Temp\ccENvndH.s 			page 3


 115              		.align	2
 116              	.L6:
 117 0064 00000000 		.word	__stack_chk_guard
 118 0068 00000000 		.word	send_tab.14903
 119 006c 00000000 		.word	SD3
 120 0070 00000000 		.word	.LANCHOR0
 121 0074 00000000 		.word	.LANCHOR1
 122 0078 00000000 		.word	GPTD12
 123 007c 00000000 		.word	processAudioData
 124              		.cfi_endproc
 125              	.LFE295:
 126              		.size	main, .-main
 127              		.section	.text.__stack_chk_fail,"ax",%progbits
 128              		.align	1
 129              		.p2align 4,,15
 130              		.global	__stack_chk_fail
 131              		.syntax unified
 132              		.thumb
 133              		.thumb_func
 134              		.fpu fpv4-sp-d16
 135              		.type	__stack_chk_fail, %function
 136              	__stack_chk_fail:
 137              	.LFB296:
 138              		.loc 1 173 0
 139              		.cfi_startproc
 140              		@ args = 0, pretend = 0, frame = 8
 141              		@ frame_needed = 0, uses_anonymous_args = 0
 142 0000 00B5     		push	{lr}
 143              		.cfi_def_cfa_offset 4
 144              		.cfi_offset 14, -4
 145 0002 084B     		ldr	r3, .L13
 146 0004 83B0     		sub	sp, sp, #12
 147              		.cfi_def_cfa_offset 16
 148              		.loc 1 173 0
 149 0006 1A68     		ldr	r2, [r3]
 150 0008 0192     		str	r2, [sp, #4]
 151              		.loc 1 174 0
 152 000a 019A     		ldr	r2, [sp, #4]
 153 000c 1B68     		ldr	r3, [r3]
 154 000e 9A42     		cmp	r2, r3
 155 0010 05D1     		bne	.L12
 156 0012 0548     		ldr	r0, .L13+4
 157              		.loc 1 175 0
 158 0014 03B0     		add	sp, sp, #12
 159              		.cfi_remember_state
 160              		.cfi_def_cfa_offset 4
 161              		@ sp needed
 162 0016 5DF804EB 		ldr	lr, [sp], #4
 163              		.cfi_restore 14
 164              		.cfi_def_cfa_offset 0
 165              		.loc 1 174 0
 166 001a FFF7FEBF 		b	chSysHalt
 167              	.LVL13:
 168              	.L12:
 169              		.cfi_restore_state
 170 001e FFF7FEFF 		bl	__stack_chk_fail
 171              	.LVL14:
ARM GAS  C:\Users\Robin\AppData\Local\Temp\ccENvndH.s 			page 4


 172              	.L14:
 173 0022 00BF     		.align	2
 174              	.L13:
 175 0024 00000000 		.word	__stack_chk_guard
 176 0028 00000000 		.word	.LC0
 177              		.cfi_endproc
 178              	.LFE296:
 179              		.size	__stack_chk_fail, .-__stack_chk_fail
 180              		.global	__stack_chk_guard
 181              		.section	.bss.send_tab.14903,"aw",%nobits
 182              		.align	2
 183              		.type	send_tab.14903, %object
 184              		.size	send_tab.14903, 4096
 185              	send_tab.14903:
 186 0000 00000000 		.space	4096
 186      00000000 
 186      00000000 
 186      00000000 
 186      00000000 
 187              		.section	.data.__stack_chk_guard,"aw",%progbits
 188              		.align	2
 189              		.type	__stack_chk_guard, %object
 190              		.size	__stack_chk_guard, 4
 191              	__stack_chk_guard:
 192 0000 96E3DEE2 		.word	-488709226
 193              		.section	.data.ser_cfg.14894,"aw",%progbits
 194              		.align	2
 195              		.set	.LANCHOR0,. + 0
 196              		.type	ser_cfg.14894, %object
 197              		.size	ser_cfg.14894, 12
 198              	ser_cfg.14894:
 199 0000 00C20100 		.word	115200
 200 0004 0000     		.short	0
 201 0006 0000     		.short	0
 202 0008 0000     		.short	0
 203 000a 0000     		.space	2
 204              		.section	.rodata.__stack_chk_fail.str1.4,"aMS",%progbits,1
 205              		.align	2
 206              	.LC0:
 207 0000 53746163 		.ascii	"Stack smashing detected\000"
 207      6B20736D 
 207      61736869 
 207      6E672064 
 207      65746563 
 208              		.section	.rodata.gpt12cfg.14898,"a",%progbits
 209              		.align	2
 210              		.set	.LANCHOR1,. + 0
 211              		.type	gpt12cfg.14898, %object
 212              		.size	gpt12cfg.14898, 16
 213              	gpt12cfg.14898:
 214 0000 40420F00 		.word	1000000
 215 0004 00000000 		.word	0
 216 0008 00000000 		.word	0
 217 000c 00000000 		.word	0
 218              		.text
 219              	.Letext0:
 220              		.file 2 "c:\\users\\robin\\desktop\\systemes_embarques_et_robotique\\eclipse_e-puck2_win32_29_jan_
ARM GAS  C:\Users\Robin\AppData\Local\Temp\ccENvndH.s 			page 5


 221              		.file 3 "c:\\users\\robin\\desktop\\systemes_embarques_et_robotique\\eclipse_e-puck2_win32_29_jan_
 222              		.file 4 "c:\\users\\robin\\desktop\\systemes_embarques_et_robotique\\eclipse_e-puck2_win32_29_jan_
 223              		.file 5 "c:\\users\\robin\\desktop\\systemes_embarques_et_robotique\\eclipse_e-puck2_win32_29_jan_
 224              		.file 6 "c:\\users\\robin\\desktop\\systemes_embarques_et_robotique\\eclipse_e-puck2_win32_29_jan_
 225              		.file 7 "c:\\users\\robin\\desktop\\systemes_embarques_et_robotique\\eclipse_e-puck2_win32_29_jan_
 226              		.file 8 "c:\\users\\robin\\desktop\\systemes_embarques_et_robotique\\eclipse_e-puck2_win32_29_jan_
 227              		.file 9 "../../lib/e-puck2_main-processor/ChibiOS//os/rt/ports/ARMCMx/compilers/GCC/chtypes.h"
 228              		.file 10 "../../lib/e-puck2_main-processor/ChibiOS//os/rt/include/chsystypes.h"
 229              		.file 11 "../../lib/e-puck2_main-processor/ChibiOS//os/rt/include/chschd.h"
 230              		.file 12 "../../lib/e-puck2_main-processor/ChibiOS//os/ext/CMSIS/include/core_cm4.h"
 231              		.file 13 "../../lib/e-puck2_main-processor/ChibiOS//os/ext/CMSIS/ST/system_stm32f4xx.h"
 232              		.file 14 "../../lib/e-puck2_main-processor/ChibiOS//os/ext/CMSIS/ST/stm32f407xx.h"
 233              		.file 15 "../../lib/e-puck2_main-processor/ChibiOS//os/rt/ports/ARMCMx/chcore.h"
 234              		.file 16 "../../lib/e-puck2_main-processor/ChibiOS//os/rt/ports/ARMCMx/chcore_v7m.h"
 235              		.file 17 "../../lib/e-puck2_main-processor/ChibiOS//os/rt/include/chdebug.h"
 236              		.file 18 "../../lib/e-puck2_main-processor/ChibiOS//os/rt/include/chtm.h"
 237              		.file 19 "../../lib/e-puck2_main-processor/ChibiOS//os/rt/include/chstats.h"
 238              		.file 20 "../../lib/e-puck2_main-processor/ChibiOS//os/rt/include/chsem.h"
 239              		.file 21 "../../lib/e-puck2_main-processor/ChibiOS//os/rt/include/chmtx.h"
 240              		.file 22 "../../lib/e-puck2_main-processor/ChibiOS//os/rt/include/chregistry.h"
 241              		.file 23 "../../lib/e-puck2_main-processor/ChibiOS//os/rt/include/chevents.h"
 242              		.file 24 "../../lib/e-puck2_main-processor/ChibiOS//os/rt/include/chqueues.h"
 243              		.file 25 "../../lib/e-puck2_main-processor/ChibiOS//os/rt/include/chstreams.h"
 244              		.file 26 "../../lib/e-puck2_main-processor/ChibiOS//os/hal/ports/STM32/STM32F4xx/stm32_dma.h"
 245              		.file 27 "../../lib/e-puck2_main-processor/ChibiOS//os/hal/include/hal_ioblock.h"
 246              		.file 28 "../../lib/e-puck2_main-processor/ChibiOS//os/hal/ports/STM32/LLD/GPIOv2/pal_lld.h"
 247              		.file 29 "../../lib/e-puck2_main-processor/ChibiOS//os/hal/include/adc.h"
 248              		.file 30 "../../lib/e-puck2_main-processor/ChibiOS//os/hal/ports/STM32/STM32F4xx/adc_lld.h"
 249              		.file 31 "../../lib/e-puck2_main-processor/ChibiOS//os/hal/include/can.h"
 250              		.file 32 "../../lib/e-puck2_main-processor/ChibiOS//os/hal/ports/STM32/LLD/can_lld.h"
 251              		.file 33 "../../lib/e-puck2_main-processor/ChibiOS//os/hal/include/dac.h"
 252              		.file 34 "../../lib/e-puck2_main-processor/ChibiOS//os/hal/ports/STM32/LLD/DACv1/dac_lld.h"
 253              		.file 35 "../../lib/e-puck2_main-processor/ChibiOS//os/hal/include/ext.h"
 254              		.file 36 "../../lib/e-puck2_main-processor/ChibiOS//os/hal/ports/STM32/LLD/ext_lld.h"
 255              		.file 37 "../../lib/e-puck2_main-processor/ChibiOS//os/hal/include/gpt.h"
 256              		.file 38 "../../lib/e-puck2_main-processor/ChibiOS//os/hal/ports/STM32/LLD/TIMv1/gpt_lld.h"
 257              		.file 39 "../../lib/e-puck2_main-processor/ChibiOS//os/hal/ports/STM32/LLD/TIMv1/stm32_tim.h"
 258              		.file 40 "../../lib/e-puck2_main-processor/ChibiOS//os/hal/include/i2c.h"
 259              		.file 41 "../../lib/e-puck2_main-processor/ChibiOS//os/hal/ports/STM32/LLD/I2Cv1/i2c_lld.h"
 260              		.file 42 "../../lib/e-puck2_main-processor/ChibiOS//os/hal/include/i2s.h"
 261              		.file 43 "../../lib/e-puck2_main-processor/ChibiOS//os/hal/ports/STM32/LLD/SPIv1/i2s_lld.h"
 262              		.file 44 "../../lib/e-puck2_main-processor/ChibiOS//os/hal/include/pwm.h"
 263              		.file 45 "../../lib/e-puck2_main-processor/ChibiOS//os/hal/ports/STM32/LLD/TIMv1/pwm_lld.h"
 264              		.file 46 "../../lib/e-puck2_main-processor/ChibiOS//os/hal/include/serial.h"
 265              		.file 47 "../../lib/e-puck2_main-processor/ChibiOS//os/hal/ports/STM32/LLD/USARTv1/serial_lld.h"
 266              		.file 48 "../../lib/e-puck2_main-processor/ChibiOS//os/hal/include/sdc.h"
 267              		.file 49 "../../lib/e-puck2_main-processor/ChibiOS//os/hal/ports/STM32/LLD/sdc_lld.h"
 268              		.file 50 "../../lib/e-puck2_main-processor/ChibiOS//os/hal/include/spi.h"
 269              		.file 51 "../../lib/e-puck2_main-processor/ChibiOS//os/hal/ports/STM32/LLD/SPIv1/spi_lld.h"
 270              		.file 52 "../../lib/e-puck2_main-processor/ChibiOS//os/hal/include/usb.h"
 271              		.file 53 "../../lib/e-puck2_main-processor/ChibiOS//os/hal/ports/STM32/LLD/OTGv1/usb_lld.h"
 272              		.file 54 "../../lib/e-puck2_main-processor/ChibiOS//os/hal/ports/STM32/LLD/OTGv1/stm32_otg.h"
 273              		.file 55 "../../lib/e-puck2_main-processor/ChibiOS//os/hal/include/serial_usb.h"
 274              		.file 56 "../../lib/e-puck2_main-processor/src/usbcfg.h"
 275              		.file 57 "../../lib/e-puck2_main-processor/ChibiOS_ext/os/hal/include/../ports/STM32/STM32F4xx/dcm
 276              		.file 58 "c:\\users\\robin\\desktop\\systemes_embarques_et_robotique\\eclipse_e-puck2_win32_29_jan
 277              		.file 59 "../../lib/e-puck2_main-processor/src/msgbus/messagebus.h"
ARM GAS  C:\Users\Robin\AppData\Local\Temp\ccENvndH.s 			page 6


 278              		.file 60 "../../lib/e-puck2_main-processor/src/parameter/parameter.h"
 279              		.file 61 "./main.h"
 280              		.file 62 "./audio_processing.h"
 281              		.file 63 "./fft.h"
 282              		.file 64 "c:\\users\\robin\\desktop\\systemes_embarques_et_robotique\\eclipse_e-puck2_win32_29_jan
 283              		.file 65 "../../lib/e-puck2_main-processor/ChibiOS//os/rt/include/chsys.h"
 284              		.file 66 "../../lib/e-puck2_main-processor/ChibiOS//os/hal/include/hal.h"
 285              		.file 67 "../../lib/e-puck2_main-processor/src/memory_protection.h"
 286              		.file 68 "../../lib/e-puck2_main-processor/src/motors.h"
 287              		.file 69 "../../lib/e-puck2_main-processor/src/audio/microphone.h"
 288              		.file 70 "../../lib/e-puck2_main-processor/ChibiOS//os/ext/CMSIS/include/arm_math.h"
 289              		.file 71 "./communications.h"